ARM GAS  /var/folders/3b/wwnq8dkd3pv49d6v3x9xry0m0000gn/T//ccooLPnb.s 			page 1


   1              		.cpu cortex-m7
   2              		.arch armv7e-m
   3              		.fpu fpv5-d16
   4              		.eabi_attribute 28, 1
   5              		.eabi_attribute 20, 1
   6              		.eabi_attribute 21, 1
   7              		.eabi_attribute 23, 3
   8              		.eabi_attribute 24, 1
   9              		.eabi_attribute 25, 1
  10              		.eabi_attribute 26, 1
  11              		.eabi_attribute 30, 2
  12              		.eabi_attribute 34, 1
  13              		.eabi_attribute 18, 4
  14              		.file	"serial_library.cpp"
  15              		.text
  16              	.Ltext0:
  17              		.cfi_sections	.debug_frame
  18              		.section	.text._ZN13SerialLibrary11UsbCallbackEPhPm,"ax",%progbits
  19              		.align	1
  20              		.p2align 2,,3
  21              		.global	_ZN13SerialLibrary11UsbCallbackEPhPm
  22              		.syntax unified
  23              		.thumb
  24              		.thumb_func
  26              	_ZN13SerialLibrary11UsbCallbackEPhPm:
  27              	.LVL0:
  28              	.LFB3182:
  29              		.file 1 "library/serial_library.cpp"
   1:library/serial_library.cpp **** #include "serial_library.h"
   2:library/serial_library.cpp **** 
   3:library/serial_library.cpp **** // Static instance pointer for callback
   4:library/serial_library.cpp **** SerialLibrary* SerialLibrary::instance_ = nullptr;
   5:library/serial_library.cpp **** 
   6:library/serial_library.cpp **** SerialLibrary::SerialLibrary(DaisySeed& hw) : hw_(hw), command_buffer_("") {
   7:library/serial_library.cpp ****     instance_ = this;
   8:library/serial_library.cpp **** }
   9:library/serial_library.cpp **** 
  10:library/serial_library.cpp **** SerialLibrary::~SerialLibrary() {
  11:library/serial_library.cpp ****     if (instance_ == this) {
  12:library/serial_library.cpp ****         instance_ = nullptr;
  13:library/serial_library.cpp ****     }
  14:library/serial_library.cpp **** }
  15:library/serial_library.cpp **** 
  16:library/serial_library.cpp **** void SerialLibrary::Init() {
  17:library/serial_library.cpp ****     // Start the log and wait for connection
  18:library/serial_library.cpp ****     hw_.StartLog(true);
  19:library/serial_library.cpp ****     
  20:library/serial_library.cpp ****     // Set USB callback
  21:library/serial_library.cpp ****     hw_.usb_handle.SetReceiveCallback(UsbCallback, UsbHandle::UsbPeriph::FS_INTERNAL);
  22:library/serial_library.cpp **** }
  23:library/serial_library.cpp **** 
  24:library/serial_library.cpp **** bool SerialLibrary::HasData() {
  25:library/serial_library.cpp ****     return !msg_fifo_.IsEmpty();
  26:library/serial_library.cpp **** }
  27:library/serial_library.cpp **** 
  28:library/serial_library.cpp **** int SerialLibrary::GetChar() {
  29:library/serial_library.cpp ****     if (msg_fifo_.IsEmpty()) {
ARM GAS  /var/folders/3b/wwnq8dkd3pv49d6v3x9xry0m0000gn/T//ccooLPnb.s 			page 2


  30:library/serial_library.cpp ****         return 0;
  31:library/serial_library.cpp ****     }
  32:library/serial_library.cpp ****     return msg_fifo_.PopFront();
  33:library/serial_library.cpp **** }
  34:library/serial_library.cpp **** 
  35:library/serial_library.cpp **** bool SerialLibrary::CheckCommand(const char* command) {
  36:library/serial_library.cpp ****     // Process any new data and add to command buffer
  37:library/serial_library.cpp ****     while (HasData()) {
  38:library/serial_library.cpp ****         int ch = GetChar();
  39:library/serial_library.cpp ****         if (ch >= 32 && ch <= 126) { // Printable ASCII characters
  40:library/serial_library.cpp ****             command_buffer_ += static_cast<char>(ch);
  41:library/serial_library.cpp ****         } else if (ch == '\n' || ch == '\r') {
  42:library/serial_library.cpp ****             // End of line found, check if command matches
  43:library/serial_library.cpp ****             std::string cmd = command_buffer_;
  44:library/serial_library.cpp ****             command_buffer_.clear();
  45:library/serial_library.cpp ****             
  46:library/serial_library.cpp ****             // Remove any trailing whitespace
  47:library/serial_library.cpp ****             while (!cmd.empty() && (cmd.back() == ' ' || cmd.back() == '\t')) {
  48:library/serial_library.cpp ****                 cmd.pop_back();
  49:library/serial_library.cpp ****             }
  50:library/serial_library.cpp ****             
  51:library/serial_library.cpp ****             return (cmd == command);
  52:library/serial_library.cpp ****         }
  53:library/serial_library.cpp ****     }
  54:library/serial_library.cpp ****     
  55:library/serial_library.cpp ****     // Also check if the current buffer matches the command (without newline)
  56:library/serial_library.cpp ****     if (!command_buffer_.empty()) {
  57:library/serial_library.cpp ****         std::string cmd = command_buffer_;
  58:library/serial_library.cpp ****         
  59:library/serial_library.cpp ****         // Remove any trailing whitespace
  60:library/serial_library.cpp ****         while (!cmd.empty() && (cmd.back() == ' ' || cmd.back() == '\t')) {
  61:library/serial_library.cpp ****             cmd.pop_back();
  62:library/serial_library.cpp ****         }
  63:library/serial_library.cpp ****         
  64:library/serial_library.cpp ****         if (cmd == command) {
  65:library/serial_library.cpp ****             command_buffer_.clear(); // Clear for next command
  66:library/serial_library.cpp ****             return true;
  67:library/serial_library.cpp ****         } else if (cmd.length() >= strlen(command)) {
  68:library/serial_library.cpp ****             // If buffer is longer than expected command, clear it
  69:library/serial_library.cpp ****             command_buffer_.clear();
  70:library/serial_library.cpp ****         }
  71:library/serial_library.cpp ****     }
  72:library/serial_library.cpp ****     
  73:library/serial_library.cpp ****     return false;
  74:library/serial_library.cpp **** }
  75:library/serial_library.cpp **** 
  76:library/serial_library.cpp **** // Static callback function
  77:library/serial_library.cpp **** void SerialLibrary::UsbCallback(uint8_t* buff, uint32_t* length) {
  30              		.loc 1 77 66 view -0
  31              		.cfi_startproc
  32              		@ args = 0, pretend = 0, frame = 0
  33              		@ frame_needed = 0, uses_anonymous_args = 0
  78:library/serial_library.cpp ****     if (instance_ && buff && length) {
  34              		.loc 1 78 5 view .LVU1
  77:library/serial_library.cpp ****     if (instance_ && buff && length) {
  35              		.loc 1 77 66 is_stmt 0 view .LVU2
  36 0000 F0B5     		push	{r4, r5, r6, r7, lr}
ARM GAS  /var/folders/3b/wwnq8dkd3pv49d6v3x9xry0m0000gn/T//ccooLPnb.s 			page 3


  37              		.cfi_def_cfa_offset 20
  38              		.cfi_offset 4, -20
  39              		.cfi_offset 5, -16
  40              		.cfi_offset 6, -12
  41              		.cfi_offset 7, -8
  42              		.cfi_offset 14, -4
  43              	.LBB478:
  44              		.loc 1 78 9 view .LVU3
  45 0002 144E     		ldr	r6, .L27
  46 0004 3368     		ldr	r3, [r6]
  47              		.loc 1 78 5 view .LVU4
  48 0006 23B3     		cbz	r3, .L1
  49              		.loc 1 78 27 discriminator 1 view .LVU5
  50 0008 18B3     		cbz	r0, .L1
  51 000a 11B3     		cbz	r1, .L1
  52              	.LVL1:
  53              		.loc 1 78 27 discriminator 1 view .LVU6
  54              	.LBE478:
  55              	.LBB479:
  56              	.LBB480:
  79:library/serial_library.cpp ****         // Push all received bytes to the FIFO
  80:library/serial_library.cpp ****         for (uint32_t i = 0; i < *length; i++) {
  57              		.loc 1 80 32 is_stmt 1 view .LVU7
  58 000c 0F68     		ldr	r7, [r1]
  59 000e 07B3     		cbz	r7, .L1
  60              		.loc 1 80 23 is_stmt 0 view .LVU8
  61 0010 4FF0000C 		mov	ip, #0
  62 0014 00E0     		b	.L8
  63              	.LVL2:
  64              	.L26:
  81:library/serial_library.cpp ****             instance_->msg_fifo_.PushBack(buff[i]);
  65              		.loc 1 81 42 view .LVU9
  66 0016 3368     		ldr	r3, [r6]
  67              	.LVL3:
  68              	.L8:
  69              		.loc 1 81 13 is_stmt 1 view .LVU10
  70              	.LBB481:
  71              	.LBI481:
  72              		.file 2 "./libDaisy//src/util/FIFO.h"
   1:./libDaisy//src/util/FIFO.h **** #pragma once
   2:./libDaisy//src/util/FIFO.h **** 
   3:./libDaisy//src/util/FIFO.h **** #include <stdint.h>
   4:./libDaisy//src/util/FIFO.h **** #include <stddef.h>
   5:./libDaisy//src/util/FIFO.h **** #include <initializer_list>
   6:./libDaisy//src/util/FIFO.h **** 
   7:./libDaisy//src/util/FIFO.h **** namespace daisy
   8:./libDaisy//src/util/FIFO.h **** {
   9:./libDaisy//src/util/FIFO.h **** /** Capacity-independent base class for FIFO. Use FIFO instead. */
  10:./libDaisy//src/util/FIFO.h **** template <typename T>
  11:./libDaisy//src/util/FIFO.h **** class FIFOBase
  12:./libDaisy//src/util/FIFO.h **** {
  13:./libDaisy//src/util/FIFO.h ****   protected:
  14:./libDaisy//src/util/FIFO.h ****     FIFOBase(T* buffer, size_t bufferSize)
  15:./libDaisy//src/util/FIFO.h ****     : buffer_(buffer), bufferSize_(bufferSize), bufferIn_(0), bufferOut_(0)
  16:./libDaisy//src/util/FIFO.h ****     {
  17:./libDaisy//src/util/FIFO.h ****     }
  18:./libDaisy//src/util/FIFO.h **** 
ARM GAS  /var/folders/3b/wwnq8dkd3pv49d6v3x9xry0m0000gn/T//ccooLPnb.s 			page 4


  19:./libDaisy//src/util/FIFO.h ****     FIFOBase(T* buffer, size_t bufferSize, std::initializer_list<T> valuesToAdd)
  20:./libDaisy//src/util/FIFO.h ****     : buffer_(buffer), bufferSize_(bufferSize), bufferIn_(0), bufferOut_(0)
  21:./libDaisy//src/util/FIFO.h ****     {
  22:./libDaisy//src/util/FIFO.h ****         PushBack(valuesToAdd);
  23:./libDaisy//src/util/FIFO.h ****     }
  24:./libDaisy//src/util/FIFO.h **** 
  25:./libDaisy//src/util/FIFO.h ****   public:
  26:./libDaisy//src/util/FIFO.h ****     /** Copies all elements from another FIFO */
  27:./libDaisy//src/util/FIFO.h ****     FIFOBase<T>& operator=(const FIFOBase<T>& other)
  28:./libDaisy//src/util/FIFO.h ****     {
  29:./libDaisy//src/util/FIFO.h ****         bufferIn_ = bufferOut_ = 0;
  30:./libDaisy//src/util/FIFO.h ****         if(!other.IsEmpty())
  31:./libDaisy//src/util/FIFO.h ****         {
  32:./libDaisy//src/util/FIFO.h ****             int readPtr = other.bufferOut_;
  33:./libDaisy//src/util/FIFO.h ****             while((readPtr != other.bufferIn_) && (bufferIn_ < bufferSize_))
  34:./libDaisy//src/util/FIFO.h ****             {
  35:./libDaisy//src/util/FIFO.h ****                 buffer_[bufferIn_++] = other.buffer_[readPtr++];
  36:./libDaisy//src/util/FIFO.h ****                 if(readPtr >= other.bufferSize_)
  37:./libDaisy//src/util/FIFO.h ****                     readPtr -= other.bufferSize_;
  38:./libDaisy//src/util/FIFO.h ****             }
  39:./libDaisy//src/util/FIFO.h ****         }
  40:./libDaisy//src/util/FIFO.h ****         return *this;
  41:./libDaisy//src/util/FIFO.h ****     }
  42:./libDaisy//src/util/FIFO.h ****     ~FIFOBase() {}
  43:./libDaisy//src/util/FIFO.h **** 
  44:./libDaisy//src/util/FIFO.h ****     /** Removes all elements from the FIFO */
  45:./libDaisy//src/util/FIFO.h ****     void Clear() { bufferIn_ = bufferOut_ = 0; }
  46:./libDaisy//src/util/FIFO.h **** 
  47:./libDaisy//src/util/FIFO.h ****     /** Adds an element to the back of the buffer, returning true on
  48:./libDaisy//src/util/FIFO.h ****         success */
  49:./libDaisy//src/util/FIFO.h ****     bool PushBack(const T& elementToAdd)
  73              		.loc 2 49 10 view .LVU11
  74              	.LBB482:
  75              	.LBB483:
  76              	.LBI483:
  50:./libDaisy//src/util/FIFO.h ****     {
  51:./libDaisy//src/util/FIFO.h ****         if(!IsFull())
  52:./libDaisy//src/util/FIFO.h ****         {
  53:./libDaisy//src/util/FIFO.h ****             buffer_[bufferIn_++] = elementToAdd;
  54:./libDaisy//src/util/FIFO.h ****             if(bufferIn_ >= bufferSize_)
  55:./libDaisy//src/util/FIFO.h ****                 bufferIn_ -= bufferSize_;
  56:./libDaisy//src/util/FIFO.h ****             return true;
  57:./libDaisy//src/util/FIFO.h ****         }
  58:./libDaisy//src/util/FIFO.h ****         return false;
  59:./libDaisy//src/util/FIFO.h ****     }
  60:./libDaisy//src/util/FIFO.h **** 
  61:./libDaisy//src/util/FIFO.h ****     /** Adds multiple elements and returns the number of elements that were added */
  62:./libDaisy//src/util/FIFO.h ****     int PushBack(std::initializer_list<T> valuesToAdd)
  63:./libDaisy//src/util/FIFO.h ****     {
  64:./libDaisy//src/util/FIFO.h ****         int numAdded = 0;
  65:./libDaisy//src/util/FIFO.h ****         for(const auto& v : valuesToAdd)
  66:./libDaisy//src/util/FIFO.h ****         {
  67:./libDaisy//src/util/FIFO.h ****             if(IsFull())
  68:./libDaisy//src/util/FIFO.h ****                 return numAdded;
  69:./libDaisy//src/util/FIFO.h **** 
  70:./libDaisy//src/util/FIFO.h ****             PushBack(v);
  71:./libDaisy//src/util/FIFO.h ****             numAdded++;
ARM GAS  /var/folders/3b/wwnq8dkd3pv49d6v3x9xry0m0000gn/T//ccooLPnb.s 			page 5


  72:./libDaisy//src/util/FIFO.h ****         }
  73:./libDaisy//src/util/FIFO.h ****         return numAdded;
  74:./libDaisy//src/util/FIFO.h ****     }
  75:./libDaisy//src/util/FIFO.h **** 
  76:./libDaisy//src/util/FIFO.h ****     /** returns a reference to the last element */
  77:./libDaisy//src/util/FIFO.h ****     T& Back()
  78:./libDaisy//src/util/FIFO.h ****     {
  79:./libDaisy//src/util/FIFO.h ****         if(IsEmpty())
  80:./libDaisy//src/util/FIFO.h ****             // invalid, but better not pass a temporary T() object as a reference...
  81:./libDaisy//src/util/FIFO.h ****             return buffer_[0];
  82:./libDaisy//src/util/FIFO.h ****         int idx = bufferIn_ - 1;
  83:./libDaisy//src/util/FIFO.h ****         if(idx < 0)
  84:./libDaisy//src/util/FIFO.h ****             idx += bufferSize_;
  85:./libDaisy//src/util/FIFO.h ****         return buffer_[idx];
  86:./libDaisy//src/util/FIFO.h ****     }
  87:./libDaisy//src/util/FIFO.h **** 
  88:./libDaisy//src/util/FIFO.h ****     /** returns a reference to the last element */
  89:./libDaisy//src/util/FIFO.h ****     const T& Back() const
  90:./libDaisy//src/util/FIFO.h ****     {
  91:./libDaisy//src/util/FIFO.h ****         if(IsEmpty())
  92:./libDaisy//src/util/FIFO.h ****             // invalid, but better not pass a temporary T() object as a reference...
  93:./libDaisy//src/util/FIFO.h ****             return buffer_[0];
  94:./libDaisy//src/util/FIFO.h ****         int idx = bufferIn_ - 1;
  95:./libDaisy//src/util/FIFO.h ****         if(idx < 0)
  96:./libDaisy//src/util/FIFO.h ****             idx += bufferSize_;
  97:./libDaisy//src/util/FIFO.h ****         return buffer_[idx];
  98:./libDaisy//src/util/FIFO.h ****     }
  99:./libDaisy//src/util/FIFO.h **** 
 100:./libDaisy//src/util/FIFO.h ****     /** removes and returns an element from the front of the buffer */
 101:./libDaisy//src/util/FIFO.h ****     T PopFront()
 102:./libDaisy//src/util/FIFO.h ****     {
 103:./libDaisy//src/util/FIFO.h ****         if(IsEmpty())
 104:./libDaisy//src/util/FIFO.h ****             return T();
 105:./libDaisy//src/util/FIFO.h ****         else
 106:./libDaisy//src/util/FIFO.h ****         {
 107:./libDaisy//src/util/FIFO.h ****             const auto result = buffer_[bufferOut_];
 108:./libDaisy//src/util/FIFO.h ****             bufferOut_++;
 109:./libDaisy//src/util/FIFO.h ****             if(bufferOut_ >= bufferSize_)
 110:./libDaisy//src/util/FIFO.h ****                 bufferOut_ -= bufferSize_;
 111:./libDaisy//src/util/FIFO.h ****             return result;
 112:./libDaisy//src/util/FIFO.h ****         }
 113:./libDaisy//src/util/FIFO.h ****     }
 114:./libDaisy//src/util/FIFO.h **** 
 115:./libDaisy//src/util/FIFO.h ****     /** returns a copy of the first element */
 116:./libDaisy//src/util/FIFO.h ****     T& Front()
 117:./libDaisy//src/util/FIFO.h ****     {
 118:./libDaisy//src/util/FIFO.h ****         if(IsEmpty())
 119:./libDaisy//src/util/FIFO.h ****             // invalid, but better not pass a temporary T() object as a reference...
 120:./libDaisy//src/util/FIFO.h ****             return buffer_[0];
 121:./libDaisy//src/util/FIFO.h ****         return buffer_[bufferOut_];
 122:./libDaisy//src/util/FIFO.h ****     }
 123:./libDaisy//src/util/FIFO.h **** 
 124:./libDaisy//src/util/FIFO.h ****     /** returns a reference to the first element */
 125:./libDaisy//src/util/FIFO.h ****     const T& Front() const
 126:./libDaisy//src/util/FIFO.h ****     {
 127:./libDaisy//src/util/FIFO.h ****         if(IsEmpty())
 128:./libDaisy//src/util/FIFO.h ****             // invalid, but better not pass a temporary T() object as a reference...
ARM GAS  /var/folders/3b/wwnq8dkd3pv49d6v3x9xry0m0000gn/T//ccooLPnb.s 			page 6


 129:./libDaisy//src/util/FIFO.h ****             return buffer_[0];
 130:./libDaisy//src/util/FIFO.h ****         return buffer_[bufferOut_];
 131:./libDaisy//src/util/FIFO.h ****     }
 132:./libDaisy//src/util/FIFO.h **** 
 133:./libDaisy//src/util/FIFO.h ****     /** Returns true if the buffer contains an element equal to the provided value */
 134:./libDaisy//src/util/FIFO.h ****     bool Contains(const T& element)
 135:./libDaisy//src/util/FIFO.h ****     {
 136:./libDaisy//src/util/FIFO.h ****         auto idx = bufferOut_;
 137:./libDaisy//src/util/FIFO.h ****         while(idx != bufferIn_)
 138:./libDaisy//src/util/FIFO.h ****         {
 139:./libDaisy//src/util/FIFO.h ****             if(buffer_[idx] == element)
 140:./libDaisy//src/util/FIFO.h ****                 return true;
 141:./libDaisy//src/util/FIFO.h ****             idx++;
 142:./libDaisy//src/util/FIFO.h ****             if(idx >= bufferSize_)
 143:./libDaisy//src/util/FIFO.h ****                 idx -= bufferSize_;
 144:./libDaisy//src/util/FIFO.h ****         }
 145:./libDaisy//src/util/FIFO.h ****         return false;
 146:./libDaisy//src/util/FIFO.h ****     }
 147:./libDaisy//src/util/FIFO.h **** 
 148:./libDaisy//src/util/FIFO.h ****     /** Returns the number of elements in the buffer that are equal to the provided value */
 149:./libDaisy//src/util/FIFO.h ****     size_t CountEqualTo(const T& element)
 150:./libDaisy//src/util/FIFO.h ****     {
 151:./libDaisy//src/util/FIFO.h ****         size_t result = 0;
 152:./libDaisy//src/util/FIFO.h ****         size_t idx    = bufferOut_;
 153:./libDaisy//src/util/FIFO.h ****         while(idx != bufferIn_)
 154:./libDaisy//src/util/FIFO.h ****         {
 155:./libDaisy//src/util/FIFO.h ****             if(buffer_[idx] == element)
 156:./libDaisy//src/util/FIFO.h ****                 result++;
 157:./libDaisy//src/util/FIFO.h ****             idx++;
 158:./libDaisy//src/util/FIFO.h ****             if(idx >= bufferSize_)
 159:./libDaisy//src/util/FIFO.h ****                 idx -= bufferSize_;
 160:./libDaisy//src/util/FIFO.h ****         }
 161:./libDaisy//src/util/FIFO.h ****         return result;
 162:./libDaisy//src/util/FIFO.h ****     }
 163:./libDaisy//src/util/FIFO.h **** 
 164:./libDaisy//src/util/FIFO.h ****     /** returns true, if the buffer is empty */
 165:./libDaisy//src/util/FIFO.h ****     bool IsEmpty() const { return bufferIn_ == bufferOut_; }
 166:./libDaisy//src/util/FIFO.h **** 
 167:./libDaisy//src/util/FIFO.h ****     /** returns true, if the buffer is Full */
 168:./libDaisy//src/util/FIFO.h ****     bool IsFull() const { return GetNumElements() == bufferSize_ - 1; }
  77              		.loc 2 168 10 view .LVU12
  78              	.LBB484:
  79              	.LBB485:
  80              	.LBI485:
 169:./libDaisy//src/util/FIFO.h **** 
 170:./libDaisy//src/util/FIFO.h ****     /** returns the number of elements in the buffer */
 171:./libDaisy//src/util/FIFO.h ****     size_t GetNumElements() const
  81              		.loc 2 171 12 view .LVU13
  82              	.LBB486:
 172:./libDaisy//src/util/FIFO.h ****     {
 173:./libDaisy//src/util/FIFO.h ****         int32_t numElements = bufferIn_ - bufferOut_;
 174:./libDaisy//src/util/FIFO.h ****         if(numElements < 0)
 175:./libDaisy//src/util/FIFO.h ****             numElements += bufferSize_;
  83              		.loc 2 175 28 is_stmt 0 view .LVU14
  84 0018 9D68     		ldr	r5, [r3, #8]
 173:./libDaisy//src/util/FIFO.h ****         if(numElements < 0)
  85              		.loc 2 173 41 view .LVU15
ARM GAS  /var/folders/3b/wwnq8dkd3pv49d6v3x9xry0m0000gn/T//ccooLPnb.s 			page 7


  86 001a D3E90342 		ldrd	r4, r2, [r3, #12]
  87              	.LVL4:
 174:./libDaisy//src/util/FIFO.h ****             numElements += bufferSize_;
  88              		.loc 2 174 9 view .LVU16
  89 001e A21A     		subs	r2, r4, r2
  90              	.LVL5:
 174:./libDaisy//src/util/FIFO.h ****             numElements += bufferSize_;
  91              		.loc 2 174 9 view .LVU17
  92              	.LBE486:
  93              	.LBE485:
  94              	.LBE484:
  95              	.LBE483:
  53:./libDaisy//src/util/FIFO.h ****             if(bufferIn_ >= bufferSize_)
  96              		.loc 2 53 20 view .LVU18
  97 0020 04F1010E 		add	lr, r4, #1
  98              	.LBB490:
  99              	.LBB489:
 100              	.LBB488:
 101              	.LBB487:
 102              		.loc 2 175 25 view .LVU19
 103 0024 48BF     		it	mi
 104 0026 5219     		addmi	r2, r2, r5
 105              	.LVL6:
 106              		.loc 2 175 25 view .LVU20
 107              	.LBE487:
 108              	.LBE488:
 168:./libDaisy//src/util/FIFO.h **** 
 109              		.loc 2 168 66 view .LVU21
 110 0028 013D     		subs	r5, r5, #1
 111              	.LBE489:
 112              	.LBE490:
  51:./libDaisy//src/util/FIFO.h ****         {
 113              		.loc 2 51 9 view .LVU22
 114 002a 9542     		cmp	r5, r2
 115 002c 0DD0     		beq	.L6
  53:./libDaisy//src/util/FIFO.h ****             if(bufferIn_ >= bufferSize_)
 116              		.loc 2 53 20 view .LVU23
 117 002e C3F80CE0 		str	lr, [r3, #12]
  53:./libDaisy//src/util/FIFO.h ****             if(bufferIn_ >= bufferSize_)
 118              		.loc 2 53 13 view .LVU24
 119 0032 5A68     		ldr	r2, [r3, #4]
  53:./libDaisy//src/util/FIFO.h ****             if(bufferIn_ >= bufferSize_)
 120              		.loc 2 53 34 view .LVU25
 121 0034 10F80C50 		ldrb	r5, [r0, ip]	@ zero_extendqisi2
 122 0038 1555     		strb	r5, [r2, r4]
 123              	.LVL7:
  53:./libDaisy//src/util/FIFO.h ****             if(bufferIn_ >= bufferSize_)
 124              		.loc 2 53 34 view .LVU26
 125 003a 0F68     		ldr	r7, [r1]
  54:./libDaisy//src/util/FIFO.h ****                 bufferIn_ -= bufferSize_;
 126              		.loc 2 54 29 view .LVU27
 127 003c D3E90242 		ldrd	r4, r2, [r3, #8]
  54:./libDaisy//src/util/FIFO.h ****                 bufferIn_ -= bufferSize_;
 128              		.loc 2 54 13 view .LVU28
 129 0040 A242     		cmp	r2, r4
  55:./libDaisy//src/util/FIFO.h ****             return true;
 130              		.loc 2 55 27 view .LVU29
ARM GAS  /var/folders/3b/wwnq8dkd3pv49d6v3x9xry0m0000gn/T//ccooLPnb.s 			page 8


 131 0042 A2EB0402 		sub	r2, r2, r4
 132 0046 28BF     		it	cs
 133 0048 DA60     		strcs	r2, [r3, #12]
 134              	.L6:
  55:./libDaisy//src/util/FIFO.h ****             return true;
 135              		.loc 2 55 27 view .LVU30
 136              	.LBE482:
 137              	.LBE481:
  80:library/serial_library.cpp ****             instance_->msg_fifo_.PushBack(buff[i]);
 138              		.loc 1 80 9 is_stmt 1 view .LVU31
 139 004a 0CF1010C 		add	ip, ip, #1
 140              	.LVL8:
  80:library/serial_library.cpp ****             instance_->msg_fifo_.PushBack(buff[i]);
 141              		.loc 1 80 32 view .LVU32
 142 004e 6745     		cmp	r7, ip
 143 0050 E1D8     		bhi	.L26
 144              	.LVL9:
 145              	.L1:
  80:library/serial_library.cpp ****             instance_->msg_fifo_.PushBack(buff[i]);
 146              		.loc 1 80 32 is_stmt 0 view .LVU33
 147              	.LBE480:
 148              	.LBE479:
  82:library/serial_library.cpp ****         }
  83:library/serial_library.cpp ****     }
  84:library/serial_library.cpp **** } ...
 149              		.loc 1 84 1 view .LVU34
 150 0052 F0BD     		pop	{r4, r5, r6, r7, pc}
 151              	.L28:
 152              		.align	2
 153              	.L27:
 154 0054 00000000 		.word	.LANCHOR0
 155              		.cfi_endproc
 156              	.LFE3182:
 158              		.section	.rodata._ZNSt7__cxx1112basic_stringIcSt11char_traitsIcESaIcEE12_M_constructIPcEEvT_S7_St2
 159              		.align	2
 160              	.LC0:
 161 0000 62617369 		.ascii	"basic_string::_M_construct null not valid\000"
 161      635F7374 
 161      72696E67 
 161      3A3A5F4D 
 161      5F636F6E 
 162              		.section	.text._ZNSt7__cxx1112basic_stringIcSt11char_traitsIcESaIcEE12_M_constructIPcEEvT_S7_St20f
 163              		.align	1
 164              		.p2align 2,,3
 165              		.syntax unified
 166              		.thumb
 167              		.thumb_func
 169              	_ZNSt7__cxx1112basic_stringIcSt11char_traitsIcESaIcEE12_M_constructIPcEEvT_S7_St20forward_iterator_
 170              	.LVL10:
 171              	.LFB3701:
 172              		.file 3 "/Library/DaisyToolchain/0.2.0/arm/arm-none-eabi/include/c++/10.3.1/bits/basic_string.tcc"
   1:/Library/DaisyToolchain/0.2.0/arm/arm-none-eabi/include/c++/10.3.1/bits/basic_string.tcc **** // Components for manipulating sequences of characters -*- C++ -*-
   2:/Library/DaisyToolchain/0.2.0/arm/arm-none-eabi/include/c++/10.3.1/bits/basic_string.tcc **** 
   3:/Library/DaisyToolchain/0.2.0/arm/arm-none-eabi/include/c++/10.3.1/bits/basic_string.tcc **** // Copyright (C) 1997-2020 Free Software Foundation, Inc.
   4:/Library/DaisyToolchain/0.2.0/arm/arm-none-eabi/include/c++/10.3.1/bits/basic_string.tcc **** //
   5:/Library/DaisyToolchain/0.2.0/arm/arm-none-eabi/include/c++/10.3.1/bits/basic_string.tcc **** // This file is part of the GNU ISO C++ Library.  This library is free
   6:/Library/DaisyToolchain/0.2.0/arm/arm-none-eabi/include/c++/10.3.1/bits/basic_string.tcc **** // software; you can redistribute it and/or modify it under the
ARM GAS  /var/folders/3b/wwnq8dkd3pv49d6v3x9xry0m0000gn/T//ccooLPnb.s 			page 9


   7:/Library/DaisyToolchain/0.2.0/arm/arm-none-eabi/include/c++/10.3.1/bits/basic_string.tcc **** // terms of the GNU General Public License as published by the
   8:/Library/DaisyToolchain/0.2.0/arm/arm-none-eabi/include/c++/10.3.1/bits/basic_string.tcc **** // Free Software Foundation; either version 3, or (at your option)
   9:/Library/DaisyToolchain/0.2.0/arm/arm-none-eabi/include/c++/10.3.1/bits/basic_string.tcc **** // any later version.
  10:/Library/DaisyToolchain/0.2.0/arm/arm-none-eabi/include/c++/10.3.1/bits/basic_string.tcc **** 
  11:/Library/DaisyToolchain/0.2.0/arm/arm-none-eabi/include/c++/10.3.1/bits/basic_string.tcc **** // This library is distributed in the hope that it will be useful,
  12:/Library/DaisyToolchain/0.2.0/arm/arm-none-eabi/include/c++/10.3.1/bits/basic_string.tcc **** // but WITHOUT ANY WARRANTY; without even the implied warranty of
  13:/Library/DaisyToolchain/0.2.0/arm/arm-none-eabi/include/c++/10.3.1/bits/basic_string.tcc **** // MERCHANTABILITY or FITNESS FOR A PARTICULAR PURPOSE.  See the
  14:/Library/DaisyToolchain/0.2.0/arm/arm-none-eabi/include/c++/10.3.1/bits/basic_string.tcc **** // GNU General Public License for more details.
  15:/Library/DaisyToolchain/0.2.0/arm/arm-none-eabi/include/c++/10.3.1/bits/basic_string.tcc **** 
  16:/Library/DaisyToolchain/0.2.0/arm/arm-none-eabi/include/c++/10.3.1/bits/basic_string.tcc **** // Under Section 7 of GPL version 3, you are granted additional
  17:/Library/DaisyToolchain/0.2.0/arm/arm-none-eabi/include/c++/10.3.1/bits/basic_string.tcc **** // permissions described in the GCC Runtime Library Exception, version
  18:/Library/DaisyToolchain/0.2.0/arm/arm-none-eabi/include/c++/10.3.1/bits/basic_string.tcc **** // 3.1, as published by the Free Software Foundation.
  19:/Library/DaisyToolchain/0.2.0/arm/arm-none-eabi/include/c++/10.3.1/bits/basic_string.tcc **** 
  20:/Library/DaisyToolchain/0.2.0/arm/arm-none-eabi/include/c++/10.3.1/bits/basic_string.tcc **** // You should have received a copy of the GNU General Public License and
  21:/Library/DaisyToolchain/0.2.0/arm/arm-none-eabi/include/c++/10.3.1/bits/basic_string.tcc **** // a copy of the GCC Runtime Library Exception along with this program;
  22:/Library/DaisyToolchain/0.2.0/arm/arm-none-eabi/include/c++/10.3.1/bits/basic_string.tcc **** // see the files COPYING3 and COPYING.RUNTIME respectively.  If not, see
  23:/Library/DaisyToolchain/0.2.0/arm/arm-none-eabi/include/c++/10.3.1/bits/basic_string.tcc **** // <http://www.gnu.org/licenses/>.
  24:/Library/DaisyToolchain/0.2.0/arm/arm-none-eabi/include/c++/10.3.1/bits/basic_string.tcc **** 
  25:/Library/DaisyToolchain/0.2.0/arm/arm-none-eabi/include/c++/10.3.1/bits/basic_string.tcc **** /** @file bits/basic_string.tcc
  26:/Library/DaisyToolchain/0.2.0/arm/arm-none-eabi/include/c++/10.3.1/bits/basic_string.tcc ****  *  This is an internal header file, included by other library headers.
  27:/Library/DaisyToolchain/0.2.0/arm/arm-none-eabi/include/c++/10.3.1/bits/basic_string.tcc ****  *  Do not attempt to use it directly. @headername{string}
  28:/Library/DaisyToolchain/0.2.0/arm/arm-none-eabi/include/c++/10.3.1/bits/basic_string.tcc ****  */
  29:/Library/DaisyToolchain/0.2.0/arm/arm-none-eabi/include/c++/10.3.1/bits/basic_string.tcc **** 
  30:/Library/DaisyToolchain/0.2.0/arm/arm-none-eabi/include/c++/10.3.1/bits/basic_string.tcc **** //
  31:/Library/DaisyToolchain/0.2.0/arm/arm-none-eabi/include/c++/10.3.1/bits/basic_string.tcc **** // ISO C++ 14882: 21  Strings library
  32:/Library/DaisyToolchain/0.2.0/arm/arm-none-eabi/include/c++/10.3.1/bits/basic_string.tcc **** //
  33:/Library/DaisyToolchain/0.2.0/arm/arm-none-eabi/include/c++/10.3.1/bits/basic_string.tcc **** 
  34:/Library/DaisyToolchain/0.2.0/arm/arm-none-eabi/include/c++/10.3.1/bits/basic_string.tcc **** // Written by Jason Merrill based upon the specification by Takanori Adachi
  35:/Library/DaisyToolchain/0.2.0/arm/arm-none-eabi/include/c++/10.3.1/bits/basic_string.tcc **** // in ANSI X3J16/94-0013R2.  Rewritten by Nathan Myers to ISO-14882.
  36:/Library/DaisyToolchain/0.2.0/arm/arm-none-eabi/include/c++/10.3.1/bits/basic_string.tcc **** // Non-reference-counted implementation written by Paolo Carlini and
  37:/Library/DaisyToolchain/0.2.0/arm/arm-none-eabi/include/c++/10.3.1/bits/basic_string.tcc **** // updated by Jonathan Wakely for ISO-14882-2011.
  38:/Library/DaisyToolchain/0.2.0/arm/arm-none-eabi/include/c++/10.3.1/bits/basic_string.tcc **** 
  39:/Library/DaisyToolchain/0.2.0/arm/arm-none-eabi/include/c++/10.3.1/bits/basic_string.tcc **** #ifndef _BASIC_STRING_TCC
  40:/Library/DaisyToolchain/0.2.0/arm/arm-none-eabi/include/c++/10.3.1/bits/basic_string.tcc **** #define _BASIC_STRING_TCC 1
  41:/Library/DaisyToolchain/0.2.0/arm/arm-none-eabi/include/c++/10.3.1/bits/basic_string.tcc **** 
  42:/Library/DaisyToolchain/0.2.0/arm/arm-none-eabi/include/c++/10.3.1/bits/basic_string.tcc **** #pragma GCC system_header
  43:/Library/DaisyToolchain/0.2.0/arm/arm-none-eabi/include/c++/10.3.1/bits/basic_string.tcc **** 
  44:/Library/DaisyToolchain/0.2.0/arm/arm-none-eabi/include/c++/10.3.1/bits/basic_string.tcc **** #include <bits/cxxabi_forced.h>
  45:/Library/DaisyToolchain/0.2.0/arm/arm-none-eabi/include/c++/10.3.1/bits/basic_string.tcc **** 
  46:/Library/DaisyToolchain/0.2.0/arm/arm-none-eabi/include/c++/10.3.1/bits/basic_string.tcc **** namespace std _GLIBCXX_VISIBILITY(default)
  47:/Library/DaisyToolchain/0.2.0/arm/arm-none-eabi/include/c++/10.3.1/bits/basic_string.tcc **** {
  48:/Library/DaisyToolchain/0.2.0/arm/arm-none-eabi/include/c++/10.3.1/bits/basic_string.tcc **** _GLIBCXX_BEGIN_NAMESPACE_VERSION
  49:/Library/DaisyToolchain/0.2.0/arm/arm-none-eabi/include/c++/10.3.1/bits/basic_string.tcc **** 
  50:/Library/DaisyToolchain/0.2.0/arm/arm-none-eabi/include/c++/10.3.1/bits/basic_string.tcc **** #if _GLIBCXX_USE_CXX11_ABI
  51:/Library/DaisyToolchain/0.2.0/arm/arm-none-eabi/include/c++/10.3.1/bits/basic_string.tcc **** 
  52:/Library/DaisyToolchain/0.2.0/arm/arm-none-eabi/include/c++/10.3.1/bits/basic_string.tcc ****   template<typename _CharT, typename _Traits, typename _Alloc>
  53:/Library/DaisyToolchain/0.2.0/arm/arm-none-eabi/include/c++/10.3.1/bits/basic_string.tcc ****     const typename basic_string<_CharT, _Traits, _Alloc>::size_type
  54:/Library/DaisyToolchain/0.2.0/arm/arm-none-eabi/include/c++/10.3.1/bits/basic_string.tcc ****     basic_string<_CharT, _Traits, _Alloc>::npos;
  55:/Library/DaisyToolchain/0.2.0/arm/arm-none-eabi/include/c++/10.3.1/bits/basic_string.tcc **** 
  56:/Library/DaisyToolchain/0.2.0/arm/arm-none-eabi/include/c++/10.3.1/bits/basic_string.tcc ****   template<typename _CharT, typename _Traits, typename _Alloc>
  57:/Library/DaisyToolchain/0.2.0/arm/arm-none-eabi/include/c++/10.3.1/bits/basic_string.tcc ****     void
  58:/Library/DaisyToolchain/0.2.0/arm/arm-none-eabi/include/c++/10.3.1/bits/basic_string.tcc ****     basic_string<_CharT, _Traits, _Alloc>::
  59:/Library/DaisyToolchain/0.2.0/arm/arm-none-eabi/include/c++/10.3.1/bits/basic_string.tcc ****     swap(basic_string& __s) _GLIBCXX_NOEXCEPT
  60:/Library/DaisyToolchain/0.2.0/arm/arm-none-eabi/include/c++/10.3.1/bits/basic_string.tcc ****     {
  61:/Library/DaisyToolchain/0.2.0/arm/arm-none-eabi/include/c++/10.3.1/bits/basic_string.tcc ****       if (this == &__s)
  62:/Library/DaisyToolchain/0.2.0/arm/arm-none-eabi/include/c++/10.3.1/bits/basic_string.tcc **** 	return;
  63:/Library/DaisyToolchain/0.2.0/arm/arm-none-eabi/include/c++/10.3.1/bits/basic_string.tcc **** 
ARM GAS  /var/folders/3b/wwnq8dkd3pv49d6v3x9xry0m0000gn/T//ccooLPnb.s 			page 10


  64:/Library/DaisyToolchain/0.2.0/arm/arm-none-eabi/include/c++/10.3.1/bits/basic_string.tcc ****       _Alloc_traits::_S_on_swap(_M_get_allocator(), __s._M_get_allocator());
  65:/Library/DaisyToolchain/0.2.0/arm/arm-none-eabi/include/c++/10.3.1/bits/basic_string.tcc **** 
  66:/Library/DaisyToolchain/0.2.0/arm/arm-none-eabi/include/c++/10.3.1/bits/basic_string.tcc ****       if (_M_is_local())
  67:/Library/DaisyToolchain/0.2.0/arm/arm-none-eabi/include/c++/10.3.1/bits/basic_string.tcc **** 	if (__s._M_is_local())
  68:/Library/DaisyToolchain/0.2.0/arm/arm-none-eabi/include/c++/10.3.1/bits/basic_string.tcc **** 	  {
  69:/Library/DaisyToolchain/0.2.0/arm/arm-none-eabi/include/c++/10.3.1/bits/basic_string.tcc **** 	    if (length() && __s.length())
  70:/Library/DaisyToolchain/0.2.0/arm/arm-none-eabi/include/c++/10.3.1/bits/basic_string.tcc **** 	      {
  71:/Library/DaisyToolchain/0.2.0/arm/arm-none-eabi/include/c++/10.3.1/bits/basic_string.tcc **** 		_CharT __tmp_data[_S_local_capacity + 1];
  72:/Library/DaisyToolchain/0.2.0/arm/arm-none-eabi/include/c++/10.3.1/bits/basic_string.tcc **** 		traits_type::copy(__tmp_data, __s._M_local_buf,
  73:/Library/DaisyToolchain/0.2.0/arm/arm-none-eabi/include/c++/10.3.1/bits/basic_string.tcc **** 				  _S_local_capacity + 1);
  74:/Library/DaisyToolchain/0.2.0/arm/arm-none-eabi/include/c++/10.3.1/bits/basic_string.tcc **** 		traits_type::copy(__s._M_local_buf, _M_local_buf,
  75:/Library/DaisyToolchain/0.2.0/arm/arm-none-eabi/include/c++/10.3.1/bits/basic_string.tcc **** 				  _S_local_capacity + 1);
  76:/Library/DaisyToolchain/0.2.0/arm/arm-none-eabi/include/c++/10.3.1/bits/basic_string.tcc **** 		traits_type::copy(_M_local_buf, __tmp_data,
  77:/Library/DaisyToolchain/0.2.0/arm/arm-none-eabi/include/c++/10.3.1/bits/basic_string.tcc **** 				  _S_local_capacity + 1);
  78:/Library/DaisyToolchain/0.2.0/arm/arm-none-eabi/include/c++/10.3.1/bits/basic_string.tcc **** 	      }
  79:/Library/DaisyToolchain/0.2.0/arm/arm-none-eabi/include/c++/10.3.1/bits/basic_string.tcc **** 	    else if (__s.length())
  80:/Library/DaisyToolchain/0.2.0/arm/arm-none-eabi/include/c++/10.3.1/bits/basic_string.tcc **** 	      {
  81:/Library/DaisyToolchain/0.2.0/arm/arm-none-eabi/include/c++/10.3.1/bits/basic_string.tcc **** 		traits_type::copy(_M_local_buf, __s._M_local_buf,
  82:/Library/DaisyToolchain/0.2.0/arm/arm-none-eabi/include/c++/10.3.1/bits/basic_string.tcc **** 				  _S_local_capacity + 1);
  83:/Library/DaisyToolchain/0.2.0/arm/arm-none-eabi/include/c++/10.3.1/bits/basic_string.tcc **** 		_M_length(__s.length());
  84:/Library/DaisyToolchain/0.2.0/arm/arm-none-eabi/include/c++/10.3.1/bits/basic_string.tcc **** 		__s._M_set_length(0);
  85:/Library/DaisyToolchain/0.2.0/arm/arm-none-eabi/include/c++/10.3.1/bits/basic_string.tcc **** 		return;
  86:/Library/DaisyToolchain/0.2.0/arm/arm-none-eabi/include/c++/10.3.1/bits/basic_string.tcc **** 	      }
  87:/Library/DaisyToolchain/0.2.0/arm/arm-none-eabi/include/c++/10.3.1/bits/basic_string.tcc **** 	    else if (length())
  88:/Library/DaisyToolchain/0.2.0/arm/arm-none-eabi/include/c++/10.3.1/bits/basic_string.tcc **** 	      {
  89:/Library/DaisyToolchain/0.2.0/arm/arm-none-eabi/include/c++/10.3.1/bits/basic_string.tcc **** 		traits_type::copy(__s._M_local_buf, _M_local_buf,
  90:/Library/DaisyToolchain/0.2.0/arm/arm-none-eabi/include/c++/10.3.1/bits/basic_string.tcc **** 				  _S_local_capacity + 1);
  91:/Library/DaisyToolchain/0.2.0/arm/arm-none-eabi/include/c++/10.3.1/bits/basic_string.tcc **** 		__s._M_length(length());
  92:/Library/DaisyToolchain/0.2.0/arm/arm-none-eabi/include/c++/10.3.1/bits/basic_string.tcc **** 		_M_set_length(0);
  93:/Library/DaisyToolchain/0.2.0/arm/arm-none-eabi/include/c++/10.3.1/bits/basic_string.tcc **** 		return;
  94:/Library/DaisyToolchain/0.2.0/arm/arm-none-eabi/include/c++/10.3.1/bits/basic_string.tcc **** 	      }
  95:/Library/DaisyToolchain/0.2.0/arm/arm-none-eabi/include/c++/10.3.1/bits/basic_string.tcc **** 	  }
  96:/Library/DaisyToolchain/0.2.0/arm/arm-none-eabi/include/c++/10.3.1/bits/basic_string.tcc **** 	else
  97:/Library/DaisyToolchain/0.2.0/arm/arm-none-eabi/include/c++/10.3.1/bits/basic_string.tcc **** 	  {
  98:/Library/DaisyToolchain/0.2.0/arm/arm-none-eabi/include/c++/10.3.1/bits/basic_string.tcc **** 	    const size_type __tmp_capacity = __s._M_allocated_capacity;
  99:/Library/DaisyToolchain/0.2.0/arm/arm-none-eabi/include/c++/10.3.1/bits/basic_string.tcc **** 	    traits_type::copy(__s._M_local_buf, _M_local_buf,
 100:/Library/DaisyToolchain/0.2.0/arm/arm-none-eabi/include/c++/10.3.1/bits/basic_string.tcc **** 			      _S_local_capacity + 1);
 101:/Library/DaisyToolchain/0.2.0/arm/arm-none-eabi/include/c++/10.3.1/bits/basic_string.tcc **** 	    _M_data(__s._M_data());
 102:/Library/DaisyToolchain/0.2.0/arm/arm-none-eabi/include/c++/10.3.1/bits/basic_string.tcc **** 	    __s._M_data(__s._M_local_buf);
 103:/Library/DaisyToolchain/0.2.0/arm/arm-none-eabi/include/c++/10.3.1/bits/basic_string.tcc **** 	    _M_capacity(__tmp_capacity);
 104:/Library/DaisyToolchain/0.2.0/arm/arm-none-eabi/include/c++/10.3.1/bits/basic_string.tcc **** 	  }
 105:/Library/DaisyToolchain/0.2.0/arm/arm-none-eabi/include/c++/10.3.1/bits/basic_string.tcc ****       else
 106:/Library/DaisyToolchain/0.2.0/arm/arm-none-eabi/include/c++/10.3.1/bits/basic_string.tcc **** 	{
 107:/Library/DaisyToolchain/0.2.0/arm/arm-none-eabi/include/c++/10.3.1/bits/basic_string.tcc **** 	  const size_type __tmp_capacity = _M_allocated_capacity;
 108:/Library/DaisyToolchain/0.2.0/arm/arm-none-eabi/include/c++/10.3.1/bits/basic_string.tcc **** 	  if (__s._M_is_local())
 109:/Library/DaisyToolchain/0.2.0/arm/arm-none-eabi/include/c++/10.3.1/bits/basic_string.tcc **** 	    {
 110:/Library/DaisyToolchain/0.2.0/arm/arm-none-eabi/include/c++/10.3.1/bits/basic_string.tcc **** 	      traits_type::copy(_M_local_buf, __s._M_local_buf,
 111:/Library/DaisyToolchain/0.2.0/arm/arm-none-eabi/include/c++/10.3.1/bits/basic_string.tcc **** 				_S_local_capacity + 1);
 112:/Library/DaisyToolchain/0.2.0/arm/arm-none-eabi/include/c++/10.3.1/bits/basic_string.tcc **** 	      __s._M_data(_M_data());
 113:/Library/DaisyToolchain/0.2.0/arm/arm-none-eabi/include/c++/10.3.1/bits/basic_string.tcc **** 	      _M_data(_M_local_buf);
 114:/Library/DaisyToolchain/0.2.0/arm/arm-none-eabi/include/c++/10.3.1/bits/basic_string.tcc **** 	    }
 115:/Library/DaisyToolchain/0.2.0/arm/arm-none-eabi/include/c++/10.3.1/bits/basic_string.tcc **** 	  else
 116:/Library/DaisyToolchain/0.2.0/arm/arm-none-eabi/include/c++/10.3.1/bits/basic_string.tcc **** 	    {
 117:/Library/DaisyToolchain/0.2.0/arm/arm-none-eabi/include/c++/10.3.1/bits/basic_string.tcc **** 	      pointer __tmp_ptr = _M_data();
 118:/Library/DaisyToolchain/0.2.0/arm/arm-none-eabi/include/c++/10.3.1/bits/basic_string.tcc **** 	      _M_data(__s._M_data());
 119:/Library/DaisyToolchain/0.2.0/arm/arm-none-eabi/include/c++/10.3.1/bits/basic_string.tcc **** 	      __s._M_data(__tmp_ptr);
 120:/Library/DaisyToolchain/0.2.0/arm/arm-none-eabi/include/c++/10.3.1/bits/basic_string.tcc **** 	      _M_capacity(__s._M_allocated_capacity);
ARM GAS  /var/folders/3b/wwnq8dkd3pv49d6v3x9xry0m0000gn/T//ccooLPnb.s 			page 11


 121:/Library/DaisyToolchain/0.2.0/arm/arm-none-eabi/include/c++/10.3.1/bits/basic_string.tcc **** 	    }
 122:/Library/DaisyToolchain/0.2.0/arm/arm-none-eabi/include/c++/10.3.1/bits/basic_string.tcc **** 	  __s._M_capacity(__tmp_capacity);
 123:/Library/DaisyToolchain/0.2.0/arm/arm-none-eabi/include/c++/10.3.1/bits/basic_string.tcc **** 	}
 124:/Library/DaisyToolchain/0.2.0/arm/arm-none-eabi/include/c++/10.3.1/bits/basic_string.tcc **** 
 125:/Library/DaisyToolchain/0.2.0/arm/arm-none-eabi/include/c++/10.3.1/bits/basic_string.tcc ****       const size_type __tmp_length = length();
 126:/Library/DaisyToolchain/0.2.0/arm/arm-none-eabi/include/c++/10.3.1/bits/basic_string.tcc ****       _M_length(__s.length());
 127:/Library/DaisyToolchain/0.2.0/arm/arm-none-eabi/include/c++/10.3.1/bits/basic_string.tcc ****       __s._M_length(__tmp_length);
 128:/Library/DaisyToolchain/0.2.0/arm/arm-none-eabi/include/c++/10.3.1/bits/basic_string.tcc ****     }
 129:/Library/DaisyToolchain/0.2.0/arm/arm-none-eabi/include/c++/10.3.1/bits/basic_string.tcc **** 
 130:/Library/DaisyToolchain/0.2.0/arm/arm-none-eabi/include/c++/10.3.1/bits/basic_string.tcc ****   template<typename _CharT, typename _Traits, typename _Alloc>
 131:/Library/DaisyToolchain/0.2.0/arm/arm-none-eabi/include/c++/10.3.1/bits/basic_string.tcc ****     typename basic_string<_CharT, _Traits, _Alloc>::pointer
 132:/Library/DaisyToolchain/0.2.0/arm/arm-none-eabi/include/c++/10.3.1/bits/basic_string.tcc ****     basic_string<_CharT, _Traits, _Alloc>::
 133:/Library/DaisyToolchain/0.2.0/arm/arm-none-eabi/include/c++/10.3.1/bits/basic_string.tcc ****     _M_create(size_type& __capacity, size_type __old_capacity)
 134:/Library/DaisyToolchain/0.2.0/arm/arm-none-eabi/include/c++/10.3.1/bits/basic_string.tcc ****     {
 135:/Library/DaisyToolchain/0.2.0/arm/arm-none-eabi/include/c++/10.3.1/bits/basic_string.tcc ****       // _GLIBCXX_RESOLVE_LIB_DEFECTS
 136:/Library/DaisyToolchain/0.2.0/arm/arm-none-eabi/include/c++/10.3.1/bits/basic_string.tcc ****       // 83.  String::npos vs. string::max_size()
 137:/Library/DaisyToolchain/0.2.0/arm/arm-none-eabi/include/c++/10.3.1/bits/basic_string.tcc ****       if (__capacity > max_size())
 138:/Library/DaisyToolchain/0.2.0/arm/arm-none-eabi/include/c++/10.3.1/bits/basic_string.tcc **** 	std::__throw_length_error(__N("basic_string::_M_create"));
 139:/Library/DaisyToolchain/0.2.0/arm/arm-none-eabi/include/c++/10.3.1/bits/basic_string.tcc **** 
 140:/Library/DaisyToolchain/0.2.0/arm/arm-none-eabi/include/c++/10.3.1/bits/basic_string.tcc ****       // The below implements an exponential growth policy, necessary to
 141:/Library/DaisyToolchain/0.2.0/arm/arm-none-eabi/include/c++/10.3.1/bits/basic_string.tcc ****       // meet amortized linear time requirements of the library: see
 142:/Library/DaisyToolchain/0.2.0/arm/arm-none-eabi/include/c++/10.3.1/bits/basic_string.tcc ****       // http://gcc.gnu.org/ml/libstdc++/2001-07/msg00085.html.
 143:/Library/DaisyToolchain/0.2.0/arm/arm-none-eabi/include/c++/10.3.1/bits/basic_string.tcc ****       if (__capacity > __old_capacity && __capacity < 2 * __old_capacity)
 144:/Library/DaisyToolchain/0.2.0/arm/arm-none-eabi/include/c++/10.3.1/bits/basic_string.tcc **** 	{
 145:/Library/DaisyToolchain/0.2.0/arm/arm-none-eabi/include/c++/10.3.1/bits/basic_string.tcc **** 	  __capacity = 2 * __old_capacity;
 146:/Library/DaisyToolchain/0.2.0/arm/arm-none-eabi/include/c++/10.3.1/bits/basic_string.tcc **** 	  // Never allocate a string bigger than max_size.
 147:/Library/DaisyToolchain/0.2.0/arm/arm-none-eabi/include/c++/10.3.1/bits/basic_string.tcc **** 	  if (__capacity > max_size())
 148:/Library/DaisyToolchain/0.2.0/arm/arm-none-eabi/include/c++/10.3.1/bits/basic_string.tcc **** 	    __capacity = max_size();
 149:/Library/DaisyToolchain/0.2.0/arm/arm-none-eabi/include/c++/10.3.1/bits/basic_string.tcc **** 	}
 150:/Library/DaisyToolchain/0.2.0/arm/arm-none-eabi/include/c++/10.3.1/bits/basic_string.tcc **** 
 151:/Library/DaisyToolchain/0.2.0/arm/arm-none-eabi/include/c++/10.3.1/bits/basic_string.tcc ****       // NB: Need an array of char_type[__capacity], plus a terminating
 152:/Library/DaisyToolchain/0.2.0/arm/arm-none-eabi/include/c++/10.3.1/bits/basic_string.tcc ****       // null char_type() element.
 153:/Library/DaisyToolchain/0.2.0/arm/arm-none-eabi/include/c++/10.3.1/bits/basic_string.tcc ****       return _Alloc_traits::allocate(_M_get_allocator(), __capacity + 1);
 154:/Library/DaisyToolchain/0.2.0/arm/arm-none-eabi/include/c++/10.3.1/bits/basic_string.tcc ****     }
 155:/Library/DaisyToolchain/0.2.0/arm/arm-none-eabi/include/c++/10.3.1/bits/basic_string.tcc **** 
 156:/Library/DaisyToolchain/0.2.0/arm/arm-none-eabi/include/c++/10.3.1/bits/basic_string.tcc ****   // NB: This is the special case for Input Iterators, used in
 157:/Library/DaisyToolchain/0.2.0/arm/arm-none-eabi/include/c++/10.3.1/bits/basic_string.tcc ****   // istreambuf_iterators, etc.
 158:/Library/DaisyToolchain/0.2.0/arm/arm-none-eabi/include/c++/10.3.1/bits/basic_string.tcc ****   // Input Iterators have a cost structure very different from
 159:/Library/DaisyToolchain/0.2.0/arm/arm-none-eabi/include/c++/10.3.1/bits/basic_string.tcc ****   // pointers, calling for a different coding style.
 160:/Library/DaisyToolchain/0.2.0/arm/arm-none-eabi/include/c++/10.3.1/bits/basic_string.tcc ****   template<typename _CharT, typename _Traits, typename _Alloc>
 161:/Library/DaisyToolchain/0.2.0/arm/arm-none-eabi/include/c++/10.3.1/bits/basic_string.tcc ****     template<typename _InIterator>
 162:/Library/DaisyToolchain/0.2.0/arm/arm-none-eabi/include/c++/10.3.1/bits/basic_string.tcc ****       void
 163:/Library/DaisyToolchain/0.2.0/arm/arm-none-eabi/include/c++/10.3.1/bits/basic_string.tcc ****       basic_string<_CharT, _Traits, _Alloc>::
 164:/Library/DaisyToolchain/0.2.0/arm/arm-none-eabi/include/c++/10.3.1/bits/basic_string.tcc ****       _M_construct(_InIterator __beg, _InIterator __end,
 165:/Library/DaisyToolchain/0.2.0/arm/arm-none-eabi/include/c++/10.3.1/bits/basic_string.tcc **** 		   std::input_iterator_tag)
 166:/Library/DaisyToolchain/0.2.0/arm/arm-none-eabi/include/c++/10.3.1/bits/basic_string.tcc ****       {
 167:/Library/DaisyToolchain/0.2.0/arm/arm-none-eabi/include/c++/10.3.1/bits/basic_string.tcc **** 	size_type __len = 0;
 168:/Library/DaisyToolchain/0.2.0/arm/arm-none-eabi/include/c++/10.3.1/bits/basic_string.tcc **** 	size_type __capacity = size_type(_S_local_capacity);
 169:/Library/DaisyToolchain/0.2.0/arm/arm-none-eabi/include/c++/10.3.1/bits/basic_string.tcc **** 
 170:/Library/DaisyToolchain/0.2.0/arm/arm-none-eabi/include/c++/10.3.1/bits/basic_string.tcc **** 	while (__beg != __end && __len < __capacity)
 171:/Library/DaisyToolchain/0.2.0/arm/arm-none-eabi/include/c++/10.3.1/bits/basic_string.tcc **** 	  {
 172:/Library/DaisyToolchain/0.2.0/arm/arm-none-eabi/include/c++/10.3.1/bits/basic_string.tcc **** 	    _M_data()[__len++] = *__beg;
 173:/Library/DaisyToolchain/0.2.0/arm/arm-none-eabi/include/c++/10.3.1/bits/basic_string.tcc **** 	    ++__beg;
 174:/Library/DaisyToolchain/0.2.0/arm/arm-none-eabi/include/c++/10.3.1/bits/basic_string.tcc **** 	  }
 175:/Library/DaisyToolchain/0.2.0/arm/arm-none-eabi/include/c++/10.3.1/bits/basic_string.tcc **** 
 176:/Library/DaisyToolchain/0.2.0/arm/arm-none-eabi/include/c++/10.3.1/bits/basic_string.tcc **** 	__try
 177:/Library/DaisyToolchain/0.2.0/arm/arm-none-eabi/include/c++/10.3.1/bits/basic_string.tcc **** 	  {
ARM GAS  /var/folders/3b/wwnq8dkd3pv49d6v3x9xry0m0000gn/T//ccooLPnb.s 			page 12


 178:/Library/DaisyToolchain/0.2.0/arm/arm-none-eabi/include/c++/10.3.1/bits/basic_string.tcc **** 	    while (__beg != __end)
 179:/Library/DaisyToolchain/0.2.0/arm/arm-none-eabi/include/c++/10.3.1/bits/basic_string.tcc **** 	      {
 180:/Library/DaisyToolchain/0.2.0/arm/arm-none-eabi/include/c++/10.3.1/bits/basic_string.tcc **** 		if (__len == __capacity)
 181:/Library/DaisyToolchain/0.2.0/arm/arm-none-eabi/include/c++/10.3.1/bits/basic_string.tcc **** 		  {
 182:/Library/DaisyToolchain/0.2.0/arm/arm-none-eabi/include/c++/10.3.1/bits/basic_string.tcc **** 		    // Allocate more space.
 183:/Library/DaisyToolchain/0.2.0/arm/arm-none-eabi/include/c++/10.3.1/bits/basic_string.tcc **** 		    __capacity = __len + 1;
 184:/Library/DaisyToolchain/0.2.0/arm/arm-none-eabi/include/c++/10.3.1/bits/basic_string.tcc **** 		    pointer __another = _M_create(__capacity, __len);
 185:/Library/DaisyToolchain/0.2.0/arm/arm-none-eabi/include/c++/10.3.1/bits/basic_string.tcc **** 		    this->_S_copy(__another, _M_data(), __len);
 186:/Library/DaisyToolchain/0.2.0/arm/arm-none-eabi/include/c++/10.3.1/bits/basic_string.tcc **** 		    _M_dispose();
 187:/Library/DaisyToolchain/0.2.0/arm/arm-none-eabi/include/c++/10.3.1/bits/basic_string.tcc **** 		    _M_data(__another);
 188:/Library/DaisyToolchain/0.2.0/arm/arm-none-eabi/include/c++/10.3.1/bits/basic_string.tcc **** 		    _M_capacity(__capacity);
 189:/Library/DaisyToolchain/0.2.0/arm/arm-none-eabi/include/c++/10.3.1/bits/basic_string.tcc **** 		  }
 190:/Library/DaisyToolchain/0.2.0/arm/arm-none-eabi/include/c++/10.3.1/bits/basic_string.tcc **** 		_M_data()[__len++] = *__beg;
 191:/Library/DaisyToolchain/0.2.0/arm/arm-none-eabi/include/c++/10.3.1/bits/basic_string.tcc **** 		++__beg;
 192:/Library/DaisyToolchain/0.2.0/arm/arm-none-eabi/include/c++/10.3.1/bits/basic_string.tcc **** 	      }
 193:/Library/DaisyToolchain/0.2.0/arm/arm-none-eabi/include/c++/10.3.1/bits/basic_string.tcc **** 	  }
 194:/Library/DaisyToolchain/0.2.0/arm/arm-none-eabi/include/c++/10.3.1/bits/basic_string.tcc **** 	__catch(...)
 195:/Library/DaisyToolchain/0.2.0/arm/arm-none-eabi/include/c++/10.3.1/bits/basic_string.tcc **** 	  {
 196:/Library/DaisyToolchain/0.2.0/arm/arm-none-eabi/include/c++/10.3.1/bits/basic_string.tcc **** 	    _M_dispose();
 197:/Library/DaisyToolchain/0.2.0/arm/arm-none-eabi/include/c++/10.3.1/bits/basic_string.tcc **** 	    __throw_exception_again;
 198:/Library/DaisyToolchain/0.2.0/arm/arm-none-eabi/include/c++/10.3.1/bits/basic_string.tcc **** 	  }
 199:/Library/DaisyToolchain/0.2.0/arm/arm-none-eabi/include/c++/10.3.1/bits/basic_string.tcc **** 
 200:/Library/DaisyToolchain/0.2.0/arm/arm-none-eabi/include/c++/10.3.1/bits/basic_string.tcc **** 	_M_set_length(__len);
 201:/Library/DaisyToolchain/0.2.0/arm/arm-none-eabi/include/c++/10.3.1/bits/basic_string.tcc ****       }
 202:/Library/DaisyToolchain/0.2.0/arm/arm-none-eabi/include/c++/10.3.1/bits/basic_string.tcc **** 
 203:/Library/DaisyToolchain/0.2.0/arm/arm-none-eabi/include/c++/10.3.1/bits/basic_string.tcc ****   template<typename _CharT, typename _Traits, typename _Alloc>
 204:/Library/DaisyToolchain/0.2.0/arm/arm-none-eabi/include/c++/10.3.1/bits/basic_string.tcc ****     template<typename _InIterator>
 205:/Library/DaisyToolchain/0.2.0/arm/arm-none-eabi/include/c++/10.3.1/bits/basic_string.tcc ****       void
 206:/Library/DaisyToolchain/0.2.0/arm/arm-none-eabi/include/c++/10.3.1/bits/basic_string.tcc ****       basic_string<_CharT, _Traits, _Alloc>::
 173              		.loc 3 206 7 is_stmt 1 view -0
 174              		.cfi_startproc
 175              		@ args = 0, pretend = 0, frame = 8
 176              		@ frame_needed = 0, uses_anonymous_args = 0
 177              		.loc 3 206 7 is_stmt 0 view .LVU36
 178 0000 70B5     		push	{r4, r5, r6, lr}
 179              		.cfi_def_cfa_offset 16
 180              		.cfi_offset 4, -16
 181              		.cfi_offset 5, -12
 182              		.cfi_offset 6, -8
 183              		.cfi_offset 14, -4
 184 0002 0546     		mov	r5, r0
 185 0004 82B0     		sub	sp, sp, #8
 186              		.cfi_def_cfa_offset 24
 187              		.loc 3 206 7 view .LVU37
 188 0006 0E46     		mov	r6, r1
 207:/Library/DaisyToolchain/0.2.0/arm/arm-none-eabi/include/c++/10.3.1/bits/basic_string.tcc ****       _M_construct(_InIterator __beg, _InIterator __end,
 208:/Library/DaisyToolchain/0.2.0/arm/arm-none-eabi/include/c++/10.3.1/bits/basic_string.tcc **** 		   std::forward_iterator_tag)
 209:/Library/DaisyToolchain/0.2.0/arm/arm-none-eabi/include/c++/10.3.1/bits/basic_string.tcc ****       {
 210:/Library/DaisyToolchain/0.2.0/arm/arm-none-eabi/include/c++/10.3.1/bits/basic_string.tcc **** 	// NB: Not required, but considered best practice.
 211:/Library/DaisyToolchain/0.2.0/arm/arm-none-eabi/include/c++/10.3.1/bits/basic_string.tcc **** 	if (__gnu_cxx::__is_null_pointer(__beg) && __beg != __end)
 189              		.loc 3 211 42 view .LVU38
 190 0008 02B1     		cbz	r2, .L30
 191 000a 41B3     		cbz	r1, .L46
 192              	.L30:
 193              	.LVL11:
 194              	.LBB520:
 195              	.LBI520:
ARM GAS  /var/folders/3b/wwnq8dkd3pv49d6v3x9xry0m0000gn/T//ccooLPnb.s 			page 13


 196              		.file 4 "/Library/DaisyToolchain/0.2.0/arm/arm-none-eabi/include/c++/10.3.1/bits/stl_iterator_base
   1:/Library/DaisyToolchain/0.2.0/arm/arm-none-eabi/include/c++/10.3.1/bits/stl_iterator_base_funcs.h **** // Functions used by iterators -*- C++ -*-
   2:/Library/DaisyToolchain/0.2.0/arm/arm-none-eabi/include/c++/10.3.1/bits/stl_iterator_base_funcs.h **** 
   3:/Library/DaisyToolchain/0.2.0/arm/arm-none-eabi/include/c++/10.3.1/bits/stl_iterator_base_funcs.h **** // Copyright (C) 2001-2020 Free Software Foundation, Inc.
   4:/Library/DaisyToolchain/0.2.0/arm/arm-none-eabi/include/c++/10.3.1/bits/stl_iterator_base_funcs.h **** //
   5:/Library/DaisyToolchain/0.2.0/arm/arm-none-eabi/include/c++/10.3.1/bits/stl_iterator_base_funcs.h **** // This file is part of the GNU ISO C++ Library.  This library is free
   6:/Library/DaisyToolchain/0.2.0/arm/arm-none-eabi/include/c++/10.3.1/bits/stl_iterator_base_funcs.h **** // software; you can redistribute it and/or modify it under the
   7:/Library/DaisyToolchain/0.2.0/arm/arm-none-eabi/include/c++/10.3.1/bits/stl_iterator_base_funcs.h **** // terms of the GNU General Public License as published by the
   8:/Library/DaisyToolchain/0.2.0/arm/arm-none-eabi/include/c++/10.3.1/bits/stl_iterator_base_funcs.h **** // Free Software Foundation; either version 3, or (at your option)
   9:/Library/DaisyToolchain/0.2.0/arm/arm-none-eabi/include/c++/10.3.1/bits/stl_iterator_base_funcs.h **** // any later version.
  10:/Library/DaisyToolchain/0.2.0/arm/arm-none-eabi/include/c++/10.3.1/bits/stl_iterator_base_funcs.h **** 
  11:/Library/DaisyToolchain/0.2.0/arm/arm-none-eabi/include/c++/10.3.1/bits/stl_iterator_base_funcs.h **** // This library is distributed in the hope that it will be useful,
  12:/Library/DaisyToolchain/0.2.0/arm/arm-none-eabi/include/c++/10.3.1/bits/stl_iterator_base_funcs.h **** // but WITHOUT ANY WARRANTY; without even the implied warranty of
  13:/Library/DaisyToolchain/0.2.0/arm/arm-none-eabi/include/c++/10.3.1/bits/stl_iterator_base_funcs.h **** // MERCHANTABILITY or FITNESS FOR A PARTICULAR PURPOSE.  See the
  14:/Library/DaisyToolchain/0.2.0/arm/arm-none-eabi/include/c++/10.3.1/bits/stl_iterator_base_funcs.h **** // GNU General Public License for more details.
  15:/Library/DaisyToolchain/0.2.0/arm/arm-none-eabi/include/c++/10.3.1/bits/stl_iterator_base_funcs.h **** 
  16:/Library/DaisyToolchain/0.2.0/arm/arm-none-eabi/include/c++/10.3.1/bits/stl_iterator_base_funcs.h **** // Under Section 7 of GPL version 3, you are granted additional
  17:/Library/DaisyToolchain/0.2.0/arm/arm-none-eabi/include/c++/10.3.1/bits/stl_iterator_base_funcs.h **** // permissions described in the GCC Runtime Library Exception, version
  18:/Library/DaisyToolchain/0.2.0/arm/arm-none-eabi/include/c++/10.3.1/bits/stl_iterator_base_funcs.h **** // 3.1, as published by the Free Software Foundation.
  19:/Library/DaisyToolchain/0.2.0/arm/arm-none-eabi/include/c++/10.3.1/bits/stl_iterator_base_funcs.h **** 
  20:/Library/DaisyToolchain/0.2.0/arm/arm-none-eabi/include/c++/10.3.1/bits/stl_iterator_base_funcs.h **** // You should have received a copy of the GNU General Public License and
  21:/Library/DaisyToolchain/0.2.0/arm/arm-none-eabi/include/c++/10.3.1/bits/stl_iterator_base_funcs.h **** // a copy of the GCC Runtime Library Exception along with this program;
  22:/Library/DaisyToolchain/0.2.0/arm/arm-none-eabi/include/c++/10.3.1/bits/stl_iterator_base_funcs.h **** // see the files COPYING3 and COPYING.RUNTIME respectively.  If not, see
  23:/Library/DaisyToolchain/0.2.0/arm/arm-none-eabi/include/c++/10.3.1/bits/stl_iterator_base_funcs.h **** // <http://www.gnu.org/licenses/>.
  24:/Library/DaisyToolchain/0.2.0/arm/arm-none-eabi/include/c++/10.3.1/bits/stl_iterator_base_funcs.h **** 
  25:/Library/DaisyToolchain/0.2.0/arm/arm-none-eabi/include/c++/10.3.1/bits/stl_iterator_base_funcs.h **** /*
  26:/Library/DaisyToolchain/0.2.0/arm/arm-none-eabi/include/c++/10.3.1/bits/stl_iterator_base_funcs.h ****  *
  27:/Library/DaisyToolchain/0.2.0/arm/arm-none-eabi/include/c++/10.3.1/bits/stl_iterator_base_funcs.h ****  * Copyright (c) 1994
  28:/Library/DaisyToolchain/0.2.0/arm/arm-none-eabi/include/c++/10.3.1/bits/stl_iterator_base_funcs.h ****  * Hewlett-Packard Company
  29:/Library/DaisyToolchain/0.2.0/arm/arm-none-eabi/include/c++/10.3.1/bits/stl_iterator_base_funcs.h ****  *
  30:/Library/DaisyToolchain/0.2.0/arm/arm-none-eabi/include/c++/10.3.1/bits/stl_iterator_base_funcs.h ****  * Permission to use, copy, modify, distribute and sell this software
  31:/Library/DaisyToolchain/0.2.0/arm/arm-none-eabi/include/c++/10.3.1/bits/stl_iterator_base_funcs.h ****  * and its documentation for any purpose is hereby granted without fee,
  32:/Library/DaisyToolchain/0.2.0/arm/arm-none-eabi/include/c++/10.3.1/bits/stl_iterator_base_funcs.h ****  * provided that the above copyright notice appear in all copies and
  33:/Library/DaisyToolchain/0.2.0/arm/arm-none-eabi/include/c++/10.3.1/bits/stl_iterator_base_funcs.h ****  * that both that copyright notice and this permission notice appear
  34:/Library/DaisyToolchain/0.2.0/arm/arm-none-eabi/include/c++/10.3.1/bits/stl_iterator_base_funcs.h ****  * in supporting documentation.  Hewlett-Packard Company makes no
  35:/Library/DaisyToolchain/0.2.0/arm/arm-none-eabi/include/c++/10.3.1/bits/stl_iterator_base_funcs.h ****  * representations about the suitability of this software for any
  36:/Library/DaisyToolchain/0.2.0/arm/arm-none-eabi/include/c++/10.3.1/bits/stl_iterator_base_funcs.h ****  * purpose.  It is provided "as is" without express or implied warranty.
  37:/Library/DaisyToolchain/0.2.0/arm/arm-none-eabi/include/c++/10.3.1/bits/stl_iterator_base_funcs.h ****  *
  38:/Library/DaisyToolchain/0.2.0/arm/arm-none-eabi/include/c++/10.3.1/bits/stl_iterator_base_funcs.h ****  *
  39:/Library/DaisyToolchain/0.2.0/arm/arm-none-eabi/include/c++/10.3.1/bits/stl_iterator_base_funcs.h ****  * Copyright (c) 1996-1998
  40:/Library/DaisyToolchain/0.2.0/arm/arm-none-eabi/include/c++/10.3.1/bits/stl_iterator_base_funcs.h ****  * Silicon Graphics Computer Systems, Inc.
  41:/Library/DaisyToolchain/0.2.0/arm/arm-none-eabi/include/c++/10.3.1/bits/stl_iterator_base_funcs.h ****  *
  42:/Library/DaisyToolchain/0.2.0/arm/arm-none-eabi/include/c++/10.3.1/bits/stl_iterator_base_funcs.h ****  * Permission to use, copy, modify, distribute and sell this software
  43:/Library/DaisyToolchain/0.2.0/arm/arm-none-eabi/include/c++/10.3.1/bits/stl_iterator_base_funcs.h ****  * and its documentation for any purpose is hereby granted without fee,
  44:/Library/DaisyToolchain/0.2.0/arm/arm-none-eabi/include/c++/10.3.1/bits/stl_iterator_base_funcs.h ****  * provided that the above copyright notice appear in all copies and
  45:/Library/DaisyToolchain/0.2.0/arm/arm-none-eabi/include/c++/10.3.1/bits/stl_iterator_base_funcs.h ****  * that both that copyright notice and this permission notice appear
  46:/Library/DaisyToolchain/0.2.0/arm/arm-none-eabi/include/c++/10.3.1/bits/stl_iterator_base_funcs.h ****  * in supporting documentation.  Silicon Graphics makes no
  47:/Library/DaisyToolchain/0.2.0/arm/arm-none-eabi/include/c++/10.3.1/bits/stl_iterator_base_funcs.h ****  * representations about the suitability of this software for any
  48:/Library/DaisyToolchain/0.2.0/arm/arm-none-eabi/include/c++/10.3.1/bits/stl_iterator_base_funcs.h ****  * purpose.  It is provided "as is" without express or implied warranty.
  49:/Library/DaisyToolchain/0.2.0/arm/arm-none-eabi/include/c++/10.3.1/bits/stl_iterator_base_funcs.h ****  */
  50:/Library/DaisyToolchain/0.2.0/arm/arm-none-eabi/include/c++/10.3.1/bits/stl_iterator_base_funcs.h **** 
  51:/Library/DaisyToolchain/0.2.0/arm/arm-none-eabi/include/c++/10.3.1/bits/stl_iterator_base_funcs.h **** /** @file bits/stl_iterator_base_funcs.h
  52:/Library/DaisyToolchain/0.2.0/arm/arm-none-eabi/include/c++/10.3.1/bits/stl_iterator_base_funcs.h ****  *  This is an internal header file, included by other library headers.
  53:/Library/DaisyToolchain/0.2.0/arm/arm-none-eabi/include/c++/10.3.1/bits/stl_iterator_base_funcs.h ****  *  Do not attempt to use it directly. @headername{iterator}
  54:/Library/DaisyToolchain/0.2.0/arm/arm-none-eabi/include/c++/10.3.1/bits/stl_iterator_base_funcs.h ****  *
  55:/Library/DaisyToolchain/0.2.0/arm/arm-none-eabi/include/c++/10.3.1/bits/stl_iterator_base_funcs.h ****  *  This file contains all of the general iterator-related utility
  56:/Library/DaisyToolchain/0.2.0/arm/arm-none-eabi/include/c++/10.3.1/bits/stl_iterator_base_funcs.h ****  *  functions, such as distance() and advance().
ARM GAS  /var/folders/3b/wwnq8dkd3pv49d6v3x9xry0m0000gn/T//ccooLPnb.s 			page 14


  57:/Library/DaisyToolchain/0.2.0/arm/arm-none-eabi/include/c++/10.3.1/bits/stl_iterator_base_funcs.h ****  */
  58:/Library/DaisyToolchain/0.2.0/arm/arm-none-eabi/include/c++/10.3.1/bits/stl_iterator_base_funcs.h **** 
  59:/Library/DaisyToolchain/0.2.0/arm/arm-none-eabi/include/c++/10.3.1/bits/stl_iterator_base_funcs.h **** #ifndef _STL_ITERATOR_BASE_FUNCS_H
  60:/Library/DaisyToolchain/0.2.0/arm/arm-none-eabi/include/c++/10.3.1/bits/stl_iterator_base_funcs.h **** #define _STL_ITERATOR_BASE_FUNCS_H 1
  61:/Library/DaisyToolchain/0.2.0/arm/arm-none-eabi/include/c++/10.3.1/bits/stl_iterator_base_funcs.h **** 
  62:/Library/DaisyToolchain/0.2.0/arm/arm-none-eabi/include/c++/10.3.1/bits/stl_iterator_base_funcs.h **** #pragma GCC system_header
  63:/Library/DaisyToolchain/0.2.0/arm/arm-none-eabi/include/c++/10.3.1/bits/stl_iterator_base_funcs.h **** 
  64:/Library/DaisyToolchain/0.2.0/arm/arm-none-eabi/include/c++/10.3.1/bits/stl_iterator_base_funcs.h **** #include <bits/concept_check.h>
  65:/Library/DaisyToolchain/0.2.0/arm/arm-none-eabi/include/c++/10.3.1/bits/stl_iterator_base_funcs.h **** #include <debug/assertions.h>
  66:/Library/DaisyToolchain/0.2.0/arm/arm-none-eabi/include/c++/10.3.1/bits/stl_iterator_base_funcs.h **** 
  67:/Library/DaisyToolchain/0.2.0/arm/arm-none-eabi/include/c++/10.3.1/bits/stl_iterator_base_funcs.h **** namespace std _GLIBCXX_VISIBILITY(default)
  68:/Library/DaisyToolchain/0.2.0/arm/arm-none-eabi/include/c++/10.3.1/bits/stl_iterator_base_funcs.h **** {
  69:/Library/DaisyToolchain/0.2.0/arm/arm-none-eabi/include/c++/10.3.1/bits/stl_iterator_base_funcs.h **** _GLIBCXX_BEGIN_NAMESPACE_VERSION
  70:/Library/DaisyToolchain/0.2.0/arm/arm-none-eabi/include/c++/10.3.1/bits/stl_iterator_base_funcs.h **** 
  71:/Library/DaisyToolchain/0.2.0/arm/arm-none-eabi/include/c++/10.3.1/bits/stl_iterator_base_funcs.h **** _GLIBCXX_BEGIN_NAMESPACE_CONTAINER
  72:/Library/DaisyToolchain/0.2.0/arm/arm-none-eabi/include/c++/10.3.1/bits/stl_iterator_base_funcs.h ****   // Forward declaration for the overloads of __distance.
  73:/Library/DaisyToolchain/0.2.0/arm/arm-none-eabi/include/c++/10.3.1/bits/stl_iterator_base_funcs.h ****   template <typename> struct _List_iterator;
  74:/Library/DaisyToolchain/0.2.0/arm/arm-none-eabi/include/c++/10.3.1/bits/stl_iterator_base_funcs.h ****   template <typename> struct _List_const_iterator;
  75:/Library/DaisyToolchain/0.2.0/arm/arm-none-eabi/include/c++/10.3.1/bits/stl_iterator_base_funcs.h **** _GLIBCXX_END_NAMESPACE_CONTAINER
  76:/Library/DaisyToolchain/0.2.0/arm/arm-none-eabi/include/c++/10.3.1/bits/stl_iterator_base_funcs.h **** 
  77:/Library/DaisyToolchain/0.2.0/arm/arm-none-eabi/include/c++/10.3.1/bits/stl_iterator_base_funcs.h ****   template<typename _InputIterator>
  78:/Library/DaisyToolchain/0.2.0/arm/arm-none-eabi/include/c++/10.3.1/bits/stl_iterator_base_funcs.h ****     inline _GLIBCXX14_CONSTEXPR
  79:/Library/DaisyToolchain/0.2.0/arm/arm-none-eabi/include/c++/10.3.1/bits/stl_iterator_base_funcs.h ****     typename iterator_traits<_InputIterator>::difference_type
  80:/Library/DaisyToolchain/0.2.0/arm/arm-none-eabi/include/c++/10.3.1/bits/stl_iterator_base_funcs.h ****     __distance(_InputIterator __first, _InputIterator __last,
  81:/Library/DaisyToolchain/0.2.0/arm/arm-none-eabi/include/c++/10.3.1/bits/stl_iterator_base_funcs.h ****                input_iterator_tag)
  82:/Library/DaisyToolchain/0.2.0/arm/arm-none-eabi/include/c++/10.3.1/bits/stl_iterator_base_funcs.h ****     {
  83:/Library/DaisyToolchain/0.2.0/arm/arm-none-eabi/include/c++/10.3.1/bits/stl_iterator_base_funcs.h ****       // concept requirements
  84:/Library/DaisyToolchain/0.2.0/arm/arm-none-eabi/include/c++/10.3.1/bits/stl_iterator_base_funcs.h ****       __glibcxx_function_requires(_InputIteratorConcept<_InputIterator>)
  85:/Library/DaisyToolchain/0.2.0/arm/arm-none-eabi/include/c++/10.3.1/bits/stl_iterator_base_funcs.h **** 
  86:/Library/DaisyToolchain/0.2.0/arm/arm-none-eabi/include/c++/10.3.1/bits/stl_iterator_base_funcs.h ****       typename iterator_traits<_InputIterator>::difference_type __n = 0;
  87:/Library/DaisyToolchain/0.2.0/arm/arm-none-eabi/include/c++/10.3.1/bits/stl_iterator_base_funcs.h ****       while (__first != __last)
  88:/Library/DaisyToolchain/0.2.0/arm/arm-none-eabi/include/c++/10.3.1/bits/stl_iterator_base_funcs.h **** 	{
  89:/Library/DaisyToolchain/0.2.0/arm/arm-none-eabi/include/c++/10.3.1/bits/stl_iterator_base_funcs.h **** 	  ++__first;
  90:/Library/DaisyToolchain/0.2.0/arm/arm-none-eabi/include/c++/10.3.1/bits/stl_iterator_base_funcs.h **** 	  ++__n;
  91:/Library/DaisyToolchain/0.2.0/arm/arm-none-eabi/include/c++/10.3.1/bits/stl_iterator_base_funcs.h **** 	}
  92:/Library/DaisyToolchain/0.2.0/arm/arm-none-eabi/include/c++/10.3.1/bits/stl_iterator_base_funcs.h ****       return __n;
  93:/Library/DaisyToolchain/0.2.0/arm/arm-none-eabi/include/c++/10.3.1/bits/stl_iterator_base_funcs.h ****     }
  94:/Library/DaisyToolchain/0.2.0/arm/arm-none-eabi/include/c++/10.3.1/bits/stl_iterator_base_funcs.h **** 
  95:/Library/DaisyToolchain/0.2.0/arm/arm-none-eabi/include/c++/10.3.1/bits/stl_iterator_base_funcs.h ****   template<typename _RandomAccessIterator>
  96:/Library/DaisyToolchain/0.2.0/arm/arm-none-eabi/include/c++/10.3.1/bits/stl_iterator_base_funcs.h ****     inline _GLIBCXX14_CONSTEXPR
  97:/Library/DaisyToolchain/0.2.0/arm/arm-none-eabi/include/c++/10.3.1/bits/stl_iterator_base_funcs.h ****     typename iterator_traits<_RandomAccessIterator>::difference_type
  98:/Library/DaisyToolchain/0.2.0/arm/arm-none-eabi/include/c++/10.3.1/bits/stl_iterator_base_funcs.h ****     __distance(_RandomAccessIterator __first, _RandomAccessIterator __last,
  99:/Library/DaisyToolchain/0.2.0/arm/arm-none-eabi/include/c++/10.3.1/bits/stl_iterator_base_funcs.h ****                random_access_iterator_tag)
 100:/Library/DaisyToolchain/0.2.0/arm/arm-none-eabi/include/c++/10.3.1/bits/stl_iterator_base_funcs.h ****     {
 101:/Library/DaisyToolchain/0.2.0/arm/arm-none-eabi/include/c++/10.3.1/bits/stl_iterator_base_funcs.h ****       // concept requirements
 102:/Library/DaisyToolchain/0.2.0/arm/arm-none-eabi/include/c++/10.3.1/bits/stl_iterator_base_funcs.h ****       __glibcxx_function_requires(_RandomAccessIteratorConcept<
 103:/Library/DaisyToolchain/0.2.0/arm/arm-none-eabi/include/c++/10.3.1/bits/stl_iterator_base_funcs.h **** 				  _RandomAccessIterator>)
 104:/Library/DaisyToolchain/0.2.0/arm/arm-none-eabi/include/c++/10.3.1/bits/stl_iterator_base_funcs.h ****       return __last - __first;
 105:/Library/DaisyToolchain/0.2.0/arm/arm-none-eabi/include/c++/10.3.1/bits/stl_iterator_base_funcs.h ****     }
 106:/Library/DaisyToolchain/0.2.0/arm/arm-none-eabi/include/c++/10.3.1/bits/stl_iterator_base_funcs.h **** 
 107:/Library/DaisyToolchain/0.2.0/arm/arm-none-eabi/include/c++/10.3.1/bits/stl_iterator_base_funcs.h **** #if _GLIBCXX_USE_CXX11_ABI
 108:/Library/DaisyToolchain/0.2.0/arm/arm-none-eabi/include/c++/10.3.1/bits/stl_iterator_base_funcs.h ****   // Forward declaration because of the qualified call in distance.
 109:/Library/DaisyToolchain/0.2.0/arm/arm-none-eabi/include/c++/10.3.1/bits/stl_iterator_base_funcs.h ****   template<typename _Tp>
 110:/Library/DaisyToolchain/0.2.0/arm/arm-none-eabi/include/c++/10.3.1/bits/stl_iterator_base_funcs.h ****     ptrdiff_t
 111:/Library/DaisyToolchain/0.2.0/arm/arm-none-eabi/include/c++/10.3.1/bits/stl_iterator_base_funcs.h ****     __distance(_GLIBCXX_STD_C::_List_iterator<_Tp>,
 112:/Library/DaisyToolchain/0.2.0/arm/arm-none-eabi/include/c++/10.3.1/bits/stl_iterator_base_funcs.h **** 	       _GLIBCXX_STD_C::_List_iterator<_Tp>,
 113:/Library/DaisyToolchain/0.2.0/arm/arm-none-eabi/include/c++/10.3.1/bits/stl_iterator_base_funcs.h **** 	       input_iterator_tag);
ARM GAS  /var/folders/3b/wwnq8dkd3pv49d6v3x9xry0m0000gn/T//ccooLPnb.s 			page 15


 114:/Library/DaisyToolchain/0.2.0/arm/arm-none-eabi/include/c++/10.3.1/bits/stl_iterator_base_funcs.h **** 
 115:/Library/DaisyToolchain/0.2.0/arm/arm-none-eabi/include/c++/10.3.1/bits/stl_iterator_base_funcs.h ****   template<typename _Tp>
 116:/Library/DaisyToolchain/0.2.0/arm/arm-none-eabi/include/c++/10.3.1/bits/stl_iterator_base_funcs.h ****     ptrdiff_t
 117:/Library/DaisyToolchain/0.2.0/arm/arm-none-eabi/include/c++/10.3.1/bits/stl_iterator_base_funcs.h ****     __distance(_GLIBCXX_STD_C::_List_const_iterator<_Tp>,
 118:/Library/DaisyToolchain/0.2.0/arm/arm-none-eabi/include/c++/10.3.1/bits/stl_iterator_base_funcs.h **** 	       _GLIBCXX_STD_C::_List_const_iterator<_Tp>,
 119:/Library/DaisyToolchain/0.2.0/arm/arm-none-eabi/include/c++/10.3.1/bits/stl_iterator_base_funcs.h **** 	       input_iterator_tag);
 120:/Library/DaisyToolchain/0.2.0/arm/arm-none-eabi/include/c++/10.3.1/bits/stl_iterator_base_funcs.h **** #endif
 121:/Library/DaisyToolchain/0.2.0/arm/arm-none-eabi/include/c++/10.3.1/bits/stl_iterator_base_funcs.h **** 
 122:/Library/DaisyToolchain/0.2.0/arm/arm-none-eabi/include/c++/10.3.1/bits/stl_iterator_base_funcs.h ****   /**
 123:/Library/DaisyToolchain/0.2.0/arm/arm-none-eabi/include/c++/10.3.1/bits/stl_iterator_base_funcs.h ****    *  @brief A generalization of pointer arithmetic.
 124:/Library/DaisyToolchain/0.2.0/arm/arm-none-eabi/include/c++/10.3.1/bits/stl_iterator_base_funcs.h ****    *  @param  __first  An input iterator.
 125:/Library/DaisyToolchain/0.2.0/arm/arm-none-eabi/include/c++/10.3.1/bits/stl_iterator_base_funcs.h ****    *  @param  __last  An input iterator.
 126:/Library/DaisyToolchain/0.2.0/arm/arm-none-eabi/include/c++/10.3.1/bits/stl_iterator_base_funcs.h ****    *  @return  The distance between them.
 127:/Library/DaisyToolchain/0.2.0/arm/arm-none-eabi/include/c++/10.3.1/bits/stl_iterator_base_funcs.h ****    *
 128:/Library/DaisyToolchain/0.2.0/arm/arm-none-eabi/include/c++/10.3.1/bits/stl_iterator_base_funcs.h ****    *  Returns @c n such that __first + n == __last.  This requires
 129:/Library/DaisyToolchain/0.2.0/arm/arm-none-eabi/include/c++/10.3.1/bits/stl_iterator_base_funcs.h ****    *  that @p __last must be reachable from @p __first.  Note that @c
 130:/Library/DaisyToolchain/0.2.0/arm/arm-none-eabi/include/c++/10.3.1/bits/stl_iterator_base_funcs.h ****    *  n may be negative.
 131:/Library/DaisyToolchain/0.2.0/arm/arm-none-eabi/include/c++/10.3.1/bits/stl_iterator_base_funcs.h ****    *
 132:/Library/DaisyToolchain/0.2.0/arm/arm-none-eabi/include/c++/10.3.1/bits/stl_iterator_base_funcs.h ****    *  For random access iterators, this uses their @c + and @c - operations
 133:/Library/DaisyToolchain/0.2.0/arm/arm-none-eabi/include/c++/10.3.1/bits/stl_iterator_base_funcs.h ****    *  and are constant time.  For other %iterator classes they are linear time.
 134:/Library/DaisyToolchain/0.2.0/arm/arm-none-eabi/include/c++/10.3.1/bits/stl_iterator_base_funcs.h ****   */
 135:/Library/DaisyToolchain/0.2.0/arm/arm-none-eabi/include/c++/10.3.1/bits/stl_iterator_base_funcs.h ****   template<typename _InputIterator>
 136:/Library/DaisyToolchain/0.2.0/arm/arm-none-eabi/include/c++/10.3.1/bits/stl_iterator_base_funcs.h ****     inline _GLIBCXX17_CONSTEXPR
 137:/Library/DaisyToolchain/0.2.0/arm/arm-none-eabi/include/c++/10.3.1/bits/stl_iterator_base_funcs.h ****     typename iterator_traits<_InputIterator>::difference_type
 138:/Library/DaisyToolchain/0.2.0/arm/arm-none-eabi/include/c++/10.3.1/bits/stl_iterator_base_funcs.h ****     distance(_InputIterator __first, _InputIterator __last)
 197              		.loc 4 138 5 is_stmt 1 view .LVU39
 198              	.LBB521:
 199              	.LBI521:
  98:/Library/DaisyToolchain/0.2.0/arm/arm-none-eabi/include/c++/10.3.1/bits/stl_iterator_base_funcs.h ****                random_access_iterator_tag)
 200              		.loc 4 98 5 view .LVU40
 201              	.LBB522:
 104:/Library/DaisyToolchain/0.2.0/arm/arm-none-eabi/include/c++/10.3.1/bits/stl_iterator_base_funcs.h ****     }
 202              		.loc 4 104 23 is_stmt 0 view .LVU41
 203 000c 941B     		subs	r4, r2, r6
 204              	.LBE522:
 205              	.LBE521:
 206              	.LBE520:
 212:/Library/DaisyToolchain/0.2.0/arm/arm-none-eabi/include/c++/10.3.1/bits/basic_string.tcc **** 	  std::__throw_logic_error(__N("basic_string::"
 213:/Library/DaisyToolchain/0.2.0/arm/arm-none-eabi/include/c++/10.3.1/bits/basic_string.tcc **** 				       "_M_construct null not valid"));
 214:/Library/DaisyToolchain/0.2.0/arm/arm-none-eabi/include/c++/10.3.1/bits/basic_string.tcc **** 
 215:/Library/DaisyToolchain/0.2.0/arm/arm-none-eabi/include/c++/10.3.1/bits/basic_string.tcc **** 	size_type __dnew = static_cast<size_type>(std::distance(__beg, __end));
 216:/Library/DaisyToolchain/0.2.0/arm/arm-none-eabi/include/c++/10.3.1/bits/basic_string.tcc **** 
 217:/Library/DaisyToolchain/0.2.0/arm/arm-none-eabi/include/c++/10.3.1/bits/basic_string.tcc **** 	if (__dnew > size_type(_S_local_capacity))
 207              		.loc 3 217 2 view .LVU42
 208 000e 0F2C     		cmp	r4, #15
 215:/Library/DaisyToolchain/0.2.0/arm/arm-none-eabi/include/c++/10.3.1/bits/basic_string.tcc **** 
 209              		.loc 3 215 12 view .LVU43
 210 0010 0194     		str	r4, [sp, #4]
 211              		.loc 3 217 2 view .LVU44
 212 0012 11D8     		bhi	.L47
 213              	.LVL12:
 214              	.LBB523:
 215              	.LBI523:
 216              		.file 5 "/Library/DaisyToolchain/0.2.0/arm/arm-none-eabi/include/c++/10.3.1/bits/basic_string.h"
   1:/Library/DaisyToolchain/0.2.0/arm/arm-none-eabi/include/c++/10.3.1/bits/basic_string.h **** // Components for manipulating sequences of characters -*- C++ -*-
   2:/Library/DaisyToolchain/0.2.0/arm/arm-none-eabi/include/c++/10.3.1/bits/basic_string.h **** 
   3:/Library/DaisyToolchain/0.2.0/arm/arm-none-eabi/include/c++/10.3.1/bits/basic_string.h **** // Copyright (C) 1997-2020 Free Software Foundation, Inc.
ARM GAS  /var/folders/3b/wwnq8dkd3pv49d6v3x9xry0m0000gn/T//ccooLPnb.s 			page 16


   4:/Library/DaisyToolchain/0.2.0/arm/arm-none-eabi/include/c++/10.3.1/bits/basic_string.h **** //
   5:/Library/DaisyToolchain/0.2.0/arm/arm-none-eabi/include/c++/10.3.1/bits/basic_string.h **** // This file is part of the GNU ISO C++ Library.  This library is free
   6:/Library/DaisyToolchain/0.2.0/arm/arm-none-eabi/include/c++/10.3.1/bits/basic_string.h **** // software; you can redistribute it and/or modify it under the
   7:/Library/DaisyToolchain/0.2.0/arm/arm-none-eabi/include/c++/10.3.1/bits/basic_string.h **** // terms of the GNU General Public License as published by the
   8:/Library/DaisyToolchain/0.2.0/arm/arm-none-eabi/include/c++/10.3.1/bits/basic_string.h **** // Free Software Foundation; either version 3, or (at your option)
   9:/Library/DaisyToolchain/0.2.0/arm/arm-none-eabi/include/c++/10.3.1/bits/basic_string.h **** // any later version.
  10:/Library/DaisyToolchain/0.2.0/arm/arm-none-eabi/include/c++/10.3.1/bits/basic_string.h **** 
  11:/Library/DaisyToolchain/0.2.0/arm/arm-none-eabi/include/c++/10.3.1/bits/basic_string.h **** // This library is distributed in the hope that it will be useful,
  12:/Library/DaisyToolchain/0.2.0/arm/arm-none-eabi/include/c++/10.3.1/bits/basic_string.h **** // but WITHOUT ANY WARRANTY; without even the implied warranty of
  13:/Library/DaisyToolchain/0.2.0/arm/arm-none-eabi/include/c++/10.3.1/bits/basic_string.h **** // MERCHANTABILITY or FITNESS FOR A PARTICULAR PURPOSE.  See the
  14:/Library/DaisyToolchain/0.2.0/arm/arm-none-eabi/include/c++/10.3.1/bits/basic_string.h **** // GNU General Public License for more details.
  15:/Library/DaisyToolchain/0.2.0/arm/arm-none-eabi/include/c++/10.3.1/bits/basic_string.h **** 
  16:/Library/DaisyToolchain/0.2.0/arm/arm-none-eabi/include/c++/10.3.1/bits/basic_string.h **** // Under Section 7 of GPL version 3, you are granted additional
  17:/Library/DaisyToolchain/0.2.0/arm/arm-none-eabi/include/c++/10.3.1/bits/basic_string.h **** // permissions described in the GCC Runtime Library Exception, version
  18:/Library/DaisyToolchain/0.2.0/arm/arm-none-eabi/include/c++/10.3.1/bits/basic_string.h **** // 3.1, as published by the Free Software Foundation.
  19:/Library/DaisyToolchain/0.2.0/arm/arm-none-eabi/include/c++/10.3.1/bits/basic_string.h **** 
  20:/Library/DaisyToolchain/0.2.0/arm/arm-none-eabi/include/c++/10.3.1/bits/basic_string.h **** // You should have received a copy of the GNU General Public License and
  21:/Library/DaisyToolchain/0.2.0/arm/arm-none-eabi/include/c++/10.3.1/bits/basic_string.h **** // a copy of the GCC Runtime Library Exception along with this program;
  22:/Library/DaisyToolchain/0.2.0/arm/arm-none-eabi/include/c++/10.3.1/bits/basic_string.h **** // see the files COPYING3 and COPYING.RUNTIME respectively.  If not, see
  23:/Library/DaisyToolchain/0.2.0/arm/arm-none-eabi/include/c++/10.3.1/bits/basic_string.h **** // <http://www.gnu.org/licenses/>.
  24:/Library/DaisyToolchain/0.2.0/arm/arm-none-eabi/include/c++/10.3.1/bits/basic_string.h **** 
  25:/Library/DaisyToolchain/0.2.0/arm/arm-none-eabi/include/c++/10.3.1/bits/basic_string.h **** /** @file bits/basic_string.h
  26:/Library/DaisyToolchain/0.2.0/arm/arm-none-eabi/include/c++/10.3.1/bits/basic_string.h ****  *  This is an internal header file, included by other library headers.
  27:/Library/DaisyToolchain/0.2.0/arm/arm-none-eabi/include/c++/10.3.1/bits/basic_string.h ****  *  Do not attempt to use it directly. @headername{string}
  28:/Library/DaisyToolchain/0.2.0/arm/arm-none-eabi/include/c++/10.3.1/bits/basic_string.h ****  */
  29:/Library/DaisyToolchain/0.2.0/arm/arm-none-eabi/include/c++/10.3.1/bits/basic_string.h **** 
  30:/Library/DaisyToolchain/0.2.0/arm/arm-none-eabi/include/c++/10.3.1/bits/basic_string.h **** //
  31:/Library/DaisyToolchain/0.2.0/arm/arm-none-eabi/include/c++/10.3.1/bits/basic_string.h **** // ISO C++ 14882: 21 Strings library
  32:/Library/DaisyToolchain/0.2.0/arm/arm-none-eabi/include/c++/10.3.1/bits/basic_string.h **** //
  33:/Library/DaisyToolchain/0.2.0/arm/arm-none-eabi/include/c++/10.3.1/bits/basic_string.h **** 
  34:/Library/DaisyToolchain/0.2.0/arm/arm-none-eabi/include/c++/10.3.1/bits/basic_string.h **** #ifndef _BASIC_STRING_H
  35:/Library/DaisyToolchain/0.2.0/arm/arm-none-eabi/include/c++/10.3.1/bits/basic_string.h **** #define _BASIC_STRING_H 1
  36:/Library/DaisyToolchain/0.2.0/arm/arm-none-eabi/include/c++/10.3.1/bits/basic_string.h **** 
  37:/Library/DaisyToolchain/0.2.0/arm/arm-none-eabi/include/c++/10.3.1/bits/basic_string.h **** #pragma GCC system_header
  38:/Library/DaisyToolchain/0.2.0/arm/arm-none-eabi/include/c++/10.3.1/bits/basic_string.h **** 
  39:/Library/DaisyToolchain/0.2.0/arm/arm-none-eabi/include/c++/10.3.1/bits/basic_string.h **** #include <ext/atomicity.h>
  40:/Library/DaisyToolchain/0.2.0/arm/arm-none-eabi/include/c++/10.3.1/bits/basic_string.h **** #include <ext/alloc_traits.h>
  41:/Library/DaisyToolchain/0.2.0/arm/arm-none-eabi/include/c++/10.3.1/bits/basic_string.h **** #include <debug/debug.h>
  42:/Library/DaisyToolchain/0.2.0/arm/arm-none-eabi/include/c++/10.3.1/bits/basic_string.h **** 
  43:/Library/DaisyToolchain/0.2.0/arm/arm-none-eabi/include/c++/10.3.1/bits/basic_string.h **** #if __cplusplus >= 201103L
  44:/Library/DaisyToolchain/0.2.0/arm/arm-none-eabi/include/c++/10.3.1/bits/basic_string.h **** #include <initializer_list>
  45:/Library/DaisyToolchain/0.2.0/arm/arm-none-eabi/include/c++/10.3.1/bits/basic_string.h **** #endif
  46:/Library/DaisyToolchain/0.2.0/arm/arm-none-eabi/include/c++/10.3.1/bits/basic_string.h **** 
  47:/Library/DaisyToolchain/0.2.0/arm/arm-none-eabi/include/c++/10.3.1/bits/basic_string.h **** #if __cplusplus >= 201703L
  48:/Library/DaisyToolchain/0.2.0/arm/arm-none-eabi/include/c++/10.3.1/bits/basic_string.h **** # include <string_view>
  49:/Library/DaisyToolchain/0.2.0/arm/arm-none-eabi/include/c++/10.3.1/bits/basic_string.h **** #endif
  50:/Library/DaisyToolchain/0.2.0/arm/arm-none-eabi/include/c++/10.3.1/bits/basic_string.h **** 
  51:/Library/DaisyToolchain/0.2.0/arm/arm-none-eabi/include/c++/10.3.1/bits/basic_string.h **** namespace std _GLIBCXX_VISIBILITY(default)
  52:/Library/DaisyToolchain/0.2.0/arm/arm-none-eabi/include/c++/10.3.1/bits/basic_string.h **** {
  53:/Library/DaisyToolchain/0.2.0/arm/arm-none-eabi/include/c++/10.3.1/bits/basic_string.h **** _GLIBCXX_BEGIN_NAMESPACE_VERSION
  54:/Library/DaisyToolchain/0.2.0/arm/arm-none-eabi/include/c++/10.3.1/bits/basic_string.h **** 
  55:/Library/DaisyToolchain/0.2.0/arm/arm-none-eabi/include/c++/10.3.1/bits/basic_string.h **** #ifdef __cpp_lib_is_constant_evaluated
  56:/Library/DaisyToolchain/0.2.0/arm/arm-none-eabi/include/c++/10.3.1/bits/basic_string.h **** // Support P1032R1 in C++20 (but not P0980R1 yet).
  57:/Library/DaisyToolchain/0.2.0/arm/arm-none-eabi/include/c++/10.3.1/bits/basic_string.h **** # define __cpp_lib_constexpr_string 201811L
  58:/Library/DaisyToolchain/0.2.0/arm/arm-none-eabi/include/c++/10.3.1/bits/basic_string.h **** #elif __cplusplus >= 201703L
  59:/Library/DaisyToolchain/0.2.0/arm/arm-none-eabi/include/c++/10.3.1/bits/basic_string.h **** // Support P0426R1 changes to char_traits in C++17.
  60:/Library/DaisyToolchain/0.2.0/arm/arm-none-eabi/include/c++/10.3.1/bits/basic_string.h **** # define __cpp_lib_constexpr_string 201611L
ARM GAS  /var/folders/3b/wwnq8dkd3pv49d6v3x9xry0m0000gn/T//ccooLPnb.s 			page 17


  61:/Library/DaisyToolchain/0.2.0/arm/arm-none-eabi/include/c++/10.3.1/bits/basic_string.h **** #elif __cplusplus > 201703L
  62:/Library/DaisyToolchain/0.2.0/arm/arm-none-eabi/include/c++/10.3.1/bits/basic_string.h **** #endif
  63:/Library/DaisyToolchain/0.2.0/arm/arm-none-eabi/include/c++/10.3.1/bits/basic_string.h **** 
  64:/Library/DaisyToolchain/0.2.0/arm/arm-none-eabi/include/c++/10.3.1/bits/basic_string.h **** #if _GLIBCXX_USE_CXX11_ABI
  65:/Library/DaisyToolchain/0.2.0/arm/arm-none-eabi/include/c++/10.3.1/bits/basic_string.h **** _GLIBCXX_BEGIN_NAMESPACE_CXX11
  66:/Library/DaisyToolchain/0.2.0/arm/arm-none-eabi/include/c++/10.3.1/bits/basic_string.h ****   /**
  67:/Library/DaisyToolchain/0.2.0/arm/arm-none-eabi/include/c++/10.3.1/bits/basic_string.h ****    *  @class basic_string basic_string.h <string>
  68:/Library/DaisyToolchain/0.2.0/arm/arm-none-eabi/include/c++/10.3.1/bits/basic_string.h ****    *  @brief  Managing sequences of characters and character-like objects.
  69:/Library/DaisyToolchain/0.2.0/arm/arm-none-eabi/include/c++/10.3.1/bits/basic_string.h ****    *
  70:/Library/DaisyToolchain/0.2.0/arm/arm-none-eabi/include/c++/10.3.1/bits/basic_string.h ****    *  @ingroup strings
  71:/Library/DaisyToolchain/0.2.0/arm/arm-none-eabi/include/c++/10.3.1/bits/basic_string.h ****    *  @ingroup sequences
  72:/Library/DaisyToolchain/0.2.0/arm/arm-none-eabi/include/c++/10.3.1/bits/basic_string.h ****    *
  73:/Library/DaisyToolchain/0.2.0/arm/arm-none-eabi/include/c++/10.3.1/bits/basic_string.h ****    *  @tparam _CharT  Type of character
  74:/Library/DaisyToolchain/0.2.0/arm/arm-none-eabi/include/c++/10.3.1/bits/basic_string.h ****    *  @tparam _Traits  Traits for character type, defaults to
  75:/Library/DaisyToolchain/0.2.0/arm/arm-none-eabi/include/c++/10.3.1/bits/basic_string.h ****    *                   char_traits<_CharT>.
  76:/Library/DaisyToolchain/0.2.0/arm/arm-none-eabi/include/c++/10.3.1/bits/basic_string.h ****    *  @tparam _Alloc  Allocator type, defaults to allocator<_CharT>.
  77:/Library/DaisyToolchain/0.2.0/arm/arm-none-eabi/include/c++/10.3.1/bits/basic_string.h ****    *
  78:/Library/DaisyToolchain/0.2.0/arm/arm-none-eabi/include/c++/10.3.1/bits/basic_string.h ****    *  Meets the requirements of a <a href="tables.html#65">container</a>, a
  79:/Library/DaisyToolchain/0.2.0/arm/arm-none-eabi/include/c++/10.3.1/bits/basic_string.h ****    *  <a href="tables.html#66">reversible container</a>, and a
  80:/Library/DaisyToolchain/0.2.0/arm/arm-none-eabi/include/c++/10.3.1/bits/basic_string.h ****    *  <a href="tables.html#67">sequence</a>.  Of the
  81:/Library/DaisyToolchain/0.2.0/arm/arm-none-eabi/include/c++/10.3.1/bits/basic_string.h ****    *  <a href="tables.html#68">optional sequence requirements</a>, only
  82:/Library/DaisyToolchain/0.2.0/arm/arm-none-eabi/include/c++/10.3.1/bits/basic_string.h ****    *  @c push_back, @c at, and @c %array access are supported.
  83:/Library/DaisyToolchain/0.2.0/arm/arm-none-eabi/include/c++/10.3.1/bits/basic_string.h ****    */
  84:/Library/DaisyToolchain/0.2.0/arm/arm-none-eabi/include/c++/10.3.1/bits/basic_string.h ****   template<typename _CharT, typename _Traits, typename _Alloc>
  85:/Library/DaisyToolchain/0.2.0/arm/arm-none-eabi/include/c++/10.3.1/bits/basic_string.h ****     class basic_string
  86:/Library/DaisyToolchain/0.2.0/arm/arm-none-eabi/include/c++/10.3.1/bits/basic_string.h ****     {
  87:/Library/DaisyToolchain/0.2.0/arm/arm-none-eabi/include/c++/10.3.1/bits/basic_string.h ****       typedef typename __gnu_cxx::__alloc_traits<_Alloc>::template
  88:/Library/DaisyToolchain/0.2.0/arm/arm-none-eabi/include/c++/10.3.1/bits/basic_string.h **** 	rebind<_CharT>::other _Char_alloc_type;
  89:/Library/DaisyToolchain/0.2.0/arm/arm-none-eabi/include/c++/10.3.1/bits/basic_string.h ****       typedef __gnu_cxx::__alloc_traits<_Char_alloc_type> _Alloc_traits;
  90:/Library/DaisyToolchain/0.2.0/arm/arm-none-eabi/include/c++/10.3.1/bits/basic_string.h **** 
  91:/Library/DaisyToolchain/0.2.0/arm/arm-none-eabi/include/c++/10.3.1/bits/basic_string.h ****       // Types:
  92:/Library/DaisyToolchain/0.2.0/arm/arm-none-eabi/include/c++/10.3.1/bits/basic_string.h ****     public:
  93:/Library/DaisyToolchain/0.2.0/arm/arm-none-eabi/include/c++/10.3.1/bits/basic_string.h ****       typedef _Traits					traits_type;
  94:/Library/DaisyToolchain/0.2.0/arm/arm-none-eabi/include/c++/10.3.1/bits/basic_string.h ****       typedef typename _Traits::char_type		value_type;
  95:/Library/DaisyToolchain/0.2.0/arm/arm-none-eabi/include/c++/10.3.1/bits/basic_string.h ****       typedef _Char_alloc_type				allocator_type;
  96:/Library/DaisyToolchain/0.2.0/arm/arm-none-eabi/include/c++/10.3.1/bits/basic_string.h ****       typedef typename _Alloc_traits::size_type		size_type;
  97:/Library/DaisyToolchain/0.2.0/arm/arm-none-eabi/include/c++/10.3.1/bits/basic_string.h ****       typedef typename _Alloc_traits::difference_type	difference_type;
  98:/Library/DaisyToolchain/0.2.0/arm/arm-none-eabi/include/c++/10.3.1/bits/basic_string.h ****       typedef typename _Alloc_traits::reference		reference;
  99:/Library/DaisyToolchain/0.2.0/arm/arm-none-eabi/include/c++/10.3.1/bits/basic_string.h ****       typedef typename _Alloc_traits::const_reference	const_reference;
 100:/Library/DaisyToolchain/0.2.0/arm/arm-none-eabi/include/c++/10.3.1/bits/basic_string.h ****       typedef typename _Alloc_traits::pointer		pointer;
 101:/Library/DaisyToolchain/0.2.0/arm/arm-none-eabi/include/c++/10.3.1/bits/basic_string.h ****       typedef typename _Alloc_traits::const_pointer	const_pointer;
 102:/Library/DaisyToolchain/0.2.0/arm/arm-none-eabi/include/c++/10.3.1/bits/basic_string.h ****       typedef __gnu_cxx::__normal_iterator<pointer, basic_string>  iterator;
 103:/Library/DaisyToolchain/0.2.0/arm/arm-none-eabi/include/c++/10.3.1/bits/basic_string.h ****       typedef __gnu_cxx::__normal_iterator<const_pointer, basic_string>
 104:/Library/DaisyToolchain/0.2.0/arm/arm-none-eabi/include/c++/10.3.1/bits/basic_string.h **** 							const_iterator;
 105:/Library/DaisyToolchain/0.2.0/arm/arm-none-eabi/include/c++/10.3.1/bits/basic_string.h ****       typedef std::reverse_iterator<const_iterator>	const_reverse_iterator;
 106:/Library/DaisyToolchain/0.2.0/arm/arm-none-eabi/include/c++/10.3.1/bits/basic_string.h ****       typedef std::reverse_iterator<iterator>		reverse_iterator;
 107:/Library/DaisyToolchain/0.2.0/arm/arm-none-eabi/include/c++/10.3.1/bits/basic_string.h **** 
 108:/Library/DaisyToolchain/0.2.0/arm/arm-none-eabi/include/c++/10.3.1/bits/basic_string.h ****       ///  Value returned by various member functions when they fail.
 109:/Library/DaisyToolchain/0.2.0/arm/arm-none-eabi/include/c++/10.3.1/bits/basic_string.h ****       static const size_type	npos = static_cast<size_type>(-1);
 110:/Library/DaisyToolchain/0.2.0/arm/arm-none-eabi/include/c++/10.3.1/bits/basic_string.h **** 
 111:/Library/DaisyToolchain/0.2.0/arm/arm-none-eabi/include/c++/10.3.1/bits/basic_string.h ****     protected:
 112:/Library/DaisyToolchain/0.2.0/arm/arm-none-eabi/include/c++/10.3.1/bits/basic_string.h ****       // type used for positions in insert, erase etc.
 113:/Library/DaisyToolchain/0.2.0/arm/arm-none-eabi/include/c++/10.3.1/bits/basic_string.h **** #if __cplusplus < 201103L
 114:/Library/DaisyToolchain/0.2.0/arm/arm-none-eabi/include/c++/10.3.1/bits/basic_string.h ****       typedef iterator __const_iterator;
 115:/Library/DaisyToolchain/0.2.0/arm/arm-none-eabi/include/c++/10.3.1/bits/basic_string.h **** #else
 116:/Library/DaisyToolchain/0.2.0/arm/arm-none-eabi/include/c++/10.3.1/bits/basic_string.h ****       typedef const_iterator __const_iterator;
 117:/Library/DaisyToolchain/0.2.0/arm/arm-none-eabi/include/c++/10.3.1/bits/basic_string.h **** #endif
ARM GAS  /var/folders/3b/wwnq8dkd3pv49d6v3x9xry0m0000gn/T//ccooLPnb.s 			page 18


 118:/Library/DaisyToolchain/0.2.0/arm/arm-none-eabi/include/c++/10.3.1/bits/basic_string.h **** 
 119:/Library/DaisyToolchain/0.2.0/arm/arm-none-eabi/include/c++/10.3.1/bits/basic_string.h ****     private:
 120:/Library/DaisyToolchain/0.2.0/arm/arm-none-eabi/include/c++/10.3.1/bits/basic_string.h **** #if __cplusplus >= 201703L
 121:/Library/DaisyToolchain/0.2.0/arm/arm-none-eabi/include/c++/10.3.1/bits/basic_string.h ****       // A helper type for avoiding boiler-plate.
 122:/Library/DaisyToolchain/0.2.0/arm/arm-none-eabi/include/c++/10.3.1/bits/basic_string.h ****       typedef basic_string_view<_CharT, _Traits> __sv_type;
 123:/Library/DaisyToolchain/0.2.0/arm/arm-none-eabi/include/c++/10.3.1/bits/basic_string.h **** 
 124:/Library/DaisyToolchain/0.2.0/arm/arm-none-eabi/include/c++/10.3.1/bits/basic_string.h ****       template<typename _Tp, typename _Res>
 125:/Library/DaisyToolchain/0.2.0/arm/arm-none-eabi/include/c++/10.3.1/bits/basic_string.h **** 	using _If_sv = enable_if_t<
 126:/Library/DaisyToolchain/0.2.0/arm/arm-none-eabi/include/c++/10.3.1/bits/basic_string.h **** 	  __and_<is_convertible<const _Tp&, __sv_type>,
 127:/Library/DaisyToolchain/0.2.0/arm/arm-none-eabi/include/c++/10.3.1/bits/basic_string.h **** 		 __not_<is_convertible<const _Tp*, const basic_string*>>,
 128:/Library/DaisyToolchain/0.2.0/arm/arm-none-eabi/include/c++/10.3.1/bits/basic_string.h **** 		 __not_<is_convertible<const _Tp&, const _CharT*>>>::value,
 129:/Library/DaisyToolchain/0.2.0/arm/arm-none-eabi/include/c++/10.3.1/bits/basic_string.h **** 	  _Res>;
 130:/Library/DaisyToolchain/0.2.0/arm/arm-none-eabi/include/c++/10.3.1/bits/basic_string.h **** 
 131:/Library/DaisyToolchain/0.2.0/arm/arm-none-eabi/include/c++/10.3.1/bits/basic_string.h ****       // Allows an implicit conversion to __sv_type.
 132:/Library/DaisyToolchain/0.2.0/arm/arm-none-eabi/include/c++/10.3.1/bits/basic_string.h ****       static __sv_type
 133:/Library/DaisyToolchain/0.2.0/arm/arm-none-eabi/include/c++/10.3.1/bits/basic_string.h ****       _S_to_string_view(__sv_type __svt) noexcept
 134:/Library/DaisyToolchain/0.2.0/arm/arm-none-eabi/include/c++/10.3.1/bits/basic_string.h ****       { return __svt; }
 135:/Library/DaisyToolchain/0.2.0/arm/arm-none-eabi/include/c++/10.3.1/bits/basic_string.h **** 
 136:/Library/DaisyToolchain/0.2.0/arm/arm-none-eabi/include/c++/10.3.1/bits/basic_string.h ****       // Wraps a string_view by explicit conversion and thus
 137:/Library/DaisyToolchain/0.2.0/arm/arm-none-eabi/include/c++/10.3.1/bits/basic_string.h ****       // allows to add an internal constructor that does not
 138:/Library/DaisyToolchain/0.2.0/arm/arm-none-eabi/include/c++/10.3.1/bits/basic_string.h ****       // participate in overload resolution when a string_view
 139:/Library/DaisyToolchain/0.2.0/arm/arm-none-eabi/include/c++/10.3.1/bits/basic_string.h ****       // is provided.
 140:/Library/DaisyToolchain/0.2.0/arm/arm-none-eabi/include/c++/10.3.1/bits/basic_string.h ****       struct __sv_wrapper
 141:/Library/DaisyToolchain/0.2.0/arm/arm-none-eabi/include/c++/10.3.1/bits/basic_string.h ****       {
 142:/Library/DaisyToolchain/0.2.0/arm/arm-none-eabi/include/c++/10.3.1/bits/basic_string.h **** 	explicit __sv_wrapper(__sv_type __sv) noexcept : _M_sv(__sv) { }
 143:/Library/DaisyToolchain/0.2.0/arm/arm-none-eabi/include/c++/10.3.1/bits/basic_string.h **** 	__sv_type _M_sv;
 144:/Library/DaisyToolchain/0.2.0/arm/arm-none-eabi/include/c++/10.3.1/bits/basic_string.h ****       };
 145:/Library/DaisyToolchain/0.2.0/arm/arm-none-eabi/include/c++/10.3.1/bits/basic_string.h **** 
 146:/Library/DaisyToolchain/0.2.0/arm/arm-none-eabi/include/c++/10.3.1/bits/basic_string.h ****       /**
 147:/Library/DaisyToolchain/0.2.0/arm/arm-none-eabi/include/c++/10.3.1/bits/basic_string.h ****        *  @brief  Only internally used: Construct string from a string view
 148:/Library/DaisyToolchain/0.2.0/arm/arm-none-eabi/include/c++/10.3.1/bits/basic_string.h ****        *          wrapper.
 149:/Library/DaisyToolchain/0.2.0/arm/arm-none-eabi/include/c++/10.3.1/bits/basic_string.h ****        *  @param  __svw  string view wrapper.
 150:/Library/DaisyToolchain/0.2.0/arm/arm-none-eabi/include/c++/10.3.1/bits/basic_string.h ****        *  @param  __a  Allocator to use.
 151:/Library/DaisyToolchain/0.2.0/arm/arm-none-eabi/include/c++/10.3.1/bits/basic_string.h ****        */
 152:/Library/DaisyToolchain/0.2.0/arm/arm-none-eabi/include/c++/10.3.1/bits/basic_string.h ****       explicit
 153:/Library/DaisyToolchain/0.2.0/arm/arm-none-eabi/include/c++/10.3.1/bits/basic_string.h ****       basic_string(__sv_wrapper __svw, const _Alloc& __a)
 154:/Library/DaisyToolchain/0.2.0/arm/arm-none-eabi/include/c++/10.3.1/bits/basic_string.h ****       : basic_string(__svw._M_sv.data(), __svw._M_sv.size(), __a) { }
 155:/Library/DaisyToolchain/0.2.0/arm/arm-none-eabi/include/c++/10.3.1/bits/basic_string.h **** #endif
 156:/Library/DaisyToolchain/0.2.0/arm/arm-none-eabi/include/c++/10.3.1/bits/basic_string.h **** 
 157:/Library/DaisyToolchain/0.2.0/arm/arm-none-eabi/include/c++/10.3.1/bits/basic_string.h ****       // Use empty-base optimization: http://www.cantrip.org/emptyopt.html
 158:/Library/DaisyToolchain/0.2.0/arm/arm-none-eabi/include/c++/10.3.1/bits/basic_string.h ****       struct _Alloc_hider : allocator_type // TODO check __is_final
 159:/Library/DaisyToolchain/0.2.0/arm/arm-none-eabi/include/c++/10.3.1/bits/basic_string.h ****       {
 160:/Library/DaisyToolchain/0.2.0/arm/arm-none-eabi/include/c++/10.3.1/bits/basic_string.h **** #if __cplusplus < 201103L
 161:/Library/DaisyToolchain/0.2.0/arm/arm-none-eabi/include/c++/10.3.1/bits/basic_string.h **** 	_Alloc_hider(pointer __dat, const _Alloc& __a = _Alloc())
 162:/Library/DaisyToolchain/0.2.0/arm/arm-none-eabi/include/c++/10.3.1/bits/basic_string.h **** 	: allocator_type(__a), _M_p(__dat) { }
 163:/Library/DaisyToolchain/0.2.0/arm/arm-none-eabi/include/c++/10.3.1/bits/basic_string.h **** #else
 164:/Library/DaisyToolchain/0.2.0/arm/arm-none-eabi/include/c++/10.3.1/bits/basic_string.h **** 	_Alloc_hider(pointer __dat, const _Alloc& __a)
 165:/Library/DaisyToolchain/0.2.0/arm/arm-none-eabi/include/c++/10.3.1/bits/basic_string.h **** 	: allocator_type(__a), _M_p(__dat) { }
 166:/Library/DaisyToolchain/0.2.0/arm/arm-none-eabi/include/c++/10.3.1/bits/basic_string.h **** 
 167:/Library/DaisyToolchain/0.2.0/arm/arm-none-eabi/include/c++/10.3.1/bits/basic_string.h **** 	_Alloc_hider(pointer __dat, _Alloc&& __a = _Alloc())
 168:/Library/DaisyToolchain/0.2.0/arm/arm-none-eabi/include/c++/10.3.1/bits/basic_string.h **** 	: allocator_type(std::move(__a)), _M_p(__dat) { }
 169:/Library/DaisyToolchain/0.2.0/arm/arm-none-eabi/include/c++/10.3.1/bits/basic_string.h **** #endif
 170:/Library/DaisyToolchain/0.2.0/arm/arm-none-eabi/include/c++/10.3.1/bits/basic_string.h **** 
 171:/Library/DaisyToolchain/0.2.0/arm/arm-none-eabi/include/c++/10.3.1/bits/basic_string.h **** 	pointer _M_p; // The actual data.
 172:/Library/DaisyToolchain/0.2.0/arm/arm-none-eabi/include/c++/10.3.1/bits/basic_string.h ****       };
 173:/Library/DaisyToolchain/0.2.0/arm/arm-none-eabi/include/c++/10.3.1/bits/basic_string.h **** 
 174:/Library/DaisyToolchain/0.2.0/arm/arm-none-eabi/include/c++/10.3.1/bits/basic_string.h ****       _Alloc_hider	_M_dataplus;
ARM GAS  /var/folders/3b/wwnq8dkd3pv49d6v3x9xry0m0000gn/T//ccooLPnb.s 			page 19


 175:/Library/DaisyToolchain/0.2.0/arm/arm-none-eabi/include/c++/10.3.1/bits/basic_string.h ****       size_type		_M_string_length;
 176:/Library/DaisyToolchain/0.2.0/arm/arm-none-eabi/include/c++/10.3.1/bits/basic_string.h **** 
 177:/Library/DaisyToolchain/0.2.0/arm/arm-none-eabi/include/c++/10.3.1/bits/basic_string.h ****       enum { _S_local_capacity = 15 / sizeof(_CharT) };
 178:/Library/DaisyToolchain/0.2.0/arm/arm-none-eabi/include/c++/10.3.1/bits/basic_string.h **** 
 179:/Library/DaisyToolchain/0.2.0/arm/arm-none-eabi/include/c++/10.3.1/bits/basic_string.h ****       union
 180:/Library/DaisyToolchain/0.2.0/arm/arm-none-eabi/include/c++/10.3.1/bits/basic_string.h ****       {
 181:/Library/DaisyToolchain/0.2.0/arm/arm-none-eabi/include/c++/10.3.1/bits/basic_string.h **** 	_CharT           _M_local_buf[_S_local_capacity + 1];
 182:/Library/DaisyToolchain/0.2.0/arm/arm-none-eabi/include/c++/10.3.1/bits/basic_string.h **** 	size_type        _M_allocated_capacity;
 183:/Library/DaisyToolchain/0.2.0/arm/arm-none-eabi/include/c++/10.3.1/bits/basic_string.h ****       };
 184:/Library/DaisyToolchain/0.2.0/arm/arm-none-eabi/include/c++/10.3.1/bits/basic_string.h **** 
 185:/Library/DaisyToolchain/0.2.0/arm/arm-none-eabi/include/c++/10.3.1/bits/basic_string.h ****       void
 186:/Library/DaisyToolchain/0.2.0/arm/arm-none-eabi/include/c++/10.3.1/bits/basic_string.h ****       _M_data(pointer __p)
 187:/Library/DaisyToolchain/0.2.0/arm/arm-none-eabi/include/c++/10.3.1/bits/basic_string.h ****       { _M_dataplus._M_p = __p; }
 188:/Library/DaisyToolchain/0.2.0/arm/arm-none-eabi/include/c++/10.3.1/bits/basic_string.h **** 
 189:/Library/DaisyToolchain/0.2.0/arm/arm-none-eabi/include/c++/10.3.1/bits/basic_string.h ****       void
 190:/Library/DaisyToolchain/0.2.0/arm/arm-none-eabi/include/c++/10.3.1/bits/basic_string.h ****       _M_length(size_type __length)
 191:/Library/DaisyToolchain/0.2.0/arm/arm-none-eabi/include/c++/10.3.1/bits/basic_string.h ****       { _M_string_length = __length; }
 192:/Library/DaisyToolchain/0.2.0/arm/arm-none-eabi/include/c++/10.3.1/bits/basic_string.h **** 
 193:/Library/DaisyToolchain/0.2.0/arm/arm-none-eabi/include/c++/10.3.1/bits/basic_string.h ****       pointer
 194:/Library/DaisyToolchain/0.2.0/arm/arm-none-eabi/include/c++/10.3.1/bits/basic_string.h ****       _M_data() const
 217              		.loc 5 194 7 is_stmt 1 view .LVU45
 218              	.LBE523:
 219              	.LBB525:
 220              	.LBB526:
 221              	.LBB527:
 195:/Library/DaisyToolchain/0.2.0/arm/arm-none-eabi/include/c++/10.3.1/bits/basic_string.h ****       { return _M_dataplus._M_p; }
 196:/Library/DaisyToolchain/0.2.0/arm/arm-none-eabi/include/c++/10.3.1/bits/basic_string.h **** 
 197:/Library/DaisyToolchain/0.2.0/arm/arm-none-eabi/include/c++/10.3.1/bits/basic_string.h ****       pointer
 198:/Library/DaisyToolchain/0.2.0/arm/arm-none-eabi/include/c++/10.3.1/bits/basic_string.h ****       _M_local_data()
 199:/Library/DaisyToolchain/0.2.0/arm/arm-none-eabi/include/c++/10.3.1/bits/basic_string.h ****       {
 200:/Library/DaisyToolchain/0.2.0/arm/arm-none-eabi/include/c++/10.3.1/bits/basic_string.h **** #if __cplusplus >= 201103L
 201:/Library/DaisyToolchain/0.2.0/arm/arm-none-eabi/include/c++/10.3.1/bits/basic_string.h **** 	return std::pointer_traits<pointer>::pointer_to(*_M_local_buf);
 202:/Library/DaisyToolchain/0.2.0/arm/arm-none-eabi/include/c++/10.3.1/bits/basic_string.h **** #else
 203:/Library/DaisyToolchain/0.2.0/arm/arm-none-eabi/include/c++/10.3.1/bits/basic_string.h **** 	return pointer(_M_local_buf);
 204:/Library/DaisyToolchain/0.2.0/arm/arm-none-eabi/include/c++/10.3.1/bits/basic_string.h **** #endif
 205:/Library/DaisyToolchain/0.2.0/arm/arm-none-eabi/include/c++/10.3.1/bits/basic_string.h ****       }
 206:/Library/DaisyToolchain/0.2.0/arm/arm-none-eabi/include/c++/10.3.1/bits/basic_string.h **** 
 207:/Library/DaisyToolchain/0.2.0/arm/arm-none-eabi/include/c++/10.3.1/bits/basic_string.h ****       const_pointer
 208:/Library/DaisyToolchain/0.2.0/arm/arm-none-eabi/include/c++/10.3.1/bits/basic_string.h ****       _M_local_data() const
 209:/Library/DaisyToolchain/0.2.0/arm/arm-none-eabi/include/c++/10.3.1/bits/basic_string.h ****       {
 210:/Library/DaisyToolchain/0.2.0/arm/arm-none-eabi/include/c++/10.3.1/bits/basic_string.h **** #if __cplusplus >= 201103L
 211:/Library/DaisyToolchain/0.2.0/arm/arm-none-eabi/include/c++/10.3.1/bits/basic_string.h **** 	return std::pointer_traits<const_pointer>::pointer_to(*_M_local_buf);
 212:/Library/DaisyToolchain/0.2.0/arm/arm-none-eabi/include/c++/10.3.1/bits/basic_string.h **** #else
 213:/Library/DaisyToolchain/0.2.0/arm/arm-none-eabi/include/c++/10.3.1/bits/basic_string.h **** 	return const_pointer(_M_local_buf);
 214:/Library/DaisyToolchain/0.2.0/arm/arm-none-eabi/include/c++/10.3.1/bits/basic_string.h **** #endif
 215:/Library/DaisyToolchain/0.2.0/arm/arm-none-eabi/include/c++/10.3.1/bits/basic_string.h ****       }
 216:/Library/DaisyToolchain/0.2.0/arm/arm-none-eabi/include/c++/10.3.1/bits/basic_string.h **** 
 217:/Library/DaisyToolchain/0.2.0/arm/arm-none-eabi/include/c++/10.3.1/bits/basic_string.h ****       void
 218:/Library/DaisyToolchain/0.2.0/arm/arm-none-eabi/include/c++/10.3.1/bits/basic_string.h ****       _M_capacity(size_type __capacity)
 219:/Library/DaisyToolchain/0.2.0/arm/arm-none-eabi/include/c++/10.3.1/bits/basic_string.h ****       { _M_allocated_capacity = __capacity; }
 220:/Library/DaisyToolchain/0.2.0/arm/arm-none-eabi/include/c++/10.3.1/bits/basic_string.h **** 
 221:/Library/DaisyToolchain/0.2.0/arm/arm-none-eabi/include/c++/10.3.1/bits/basic_string.h ****       void
 222:/Library/DaisyToolchain/0.2.0/arm/arm-none-eabi/include/c++/10.3.1/bits/basic_string.h ****       _M_set_length(size_type __n)
 223:/Library/DaisyToolchain/0.2.0/arm/arm-none-eabi/include/c++/10.3.1/bits/basic_string.h ****       {
 224:/Library/DaisyToolchain/0.2.0/arm/arm-none-eabi/include/c++/10.3.1/bits/basic_string.h **** 	_M_length(__n);
 225:/Library/DaisyToolchain/0.2.0/arm/arm-none-eabi/include/c++/10.3.1/bits/basic_string.h **** 	traits_type::assign(_M_data()[__n], _CharT());
 226:/Library/DaisyToolchain/0.2.0/arm/arm-none-eabi/include/c++/10.3.1/bits/basic_string.h ****       }
ARM GAS  /var/folders/3b/wwnq8dkd3pv49d6v3x9xry0m0000gn/T//ccooLPnb.s 			page 20


 227:/Library/DaisyToolchain/0.2.0/arm/arm-none-eabi/include/c++/10.3.1/bits/basic_string.h **** 
 228:/Library/DaisyToolchain/0.2.0/arm/arm-none-eabi/include/c++/10.3.1/bits/basic_string.h ****       bool
 229:/Library/DaisyToolchain/0.2.0/arm/arm-none-eabi/include/c++/10.3.1/bits/basic_string.h ****       _M_is_local() const
 230:/Library/DaisyToolchain/0.2.0/arm/arm-none-eabi/include/c++/10.3.1/bits/basic_string.h ****       { return _M_data() == _M_local_data(); }
 231:/Library/DaisyToolchain/0.2.0/arm/arm-none-eabi/include/c++/10.3.1/bits/basic_string.h **** 
 232:/Library/DaisyToolchain/0.2.0/arm/arm-none-eabi/include/c++/10.3.1/bits/basic_string.h ****       // Create & Destroy
 233:/Library/DaisyToolchain/0.2.0/arm/arm-none-eabi/include/c++/10.3.1/bits/basic_string.h ****       pointer
 234:/Library/DaisyToolchain/0.2.0/arm/arm-none-eabi/include/c++/10.3.1/bits/basic_string.h ****       _M_create(size_type&, size_type);
 235:/Library/DaisyToolchain/0.2.0/arm/arm-none-eabi/include/c++/10.3.1/bits/basic_string.h **** 
 236:/Library/DaisyToolchain/0.2.0/arm/arm-none-eabi/include/c++/10.3.1/bits/basic_string.h ****       void
 237:/Library/DaisyToolchain/0.2.0/arm/arm-none-eabi/include/c++/10.3.1/bits/basic_string.h ****       _M_dispose()
 238:/Library/DaisyToolchain/0.2.0/arm/arm-none-eabi/include/c++/10.3.1/bits/basic_string.h ****       {
 239:/Library/DaisyToolchain/0.2.0/arm/arm-none-eabi/include/c++/10.3.1/bits/basic_string.h **** 	if (!_M_is_local())
 240:/Library/DaisyToolchain/0.2.0/arm/arm-none-eabi/include/c++/10.3.1/bits/basic_string.h **** 	  _M_destroy(_M_allocated_capacity);
 241:/Library/DaisyToolchain/0.2.0/arm/arm-none-eabi/include/c++/10.3.1/bits/basic_string.h ****       }
 242:/Library/DaisyToolchain/0.2.0/arm/arm-none-eabi/include/c++/10.3.1/bits/basic_string.h **** 
 243:/Library/DaisyToolchain/0.2.0/arm/arm-none-eabi/include/c++/10.3.1/bits/basic_string.h ****       void
 244:/Library/DaisyToolchain/0.2.0/arm/arm-none-eabi/include/c++/10.3.1/bits/basic_string.h ****       _M_destroy(size_type __size) throw()
 245:/Library/DaisyToolchain/0.2.0/arm/arm-none-eabi/include/c++/10.3.1/bits/basic_string.h ****       { _Alloc_traits::deallocate(_M_get_allocator(), _M_data(), __size + 1); }
 246:/Library/DaisyToolchain/0.2.0/arm/arm-none-eabi/include/c++/10.3.1/bits/basic_string.h **** 
 247:/Library/DaisyToolchain/0.2.0/arm/arm-none-eabi/include/c++/10.3.1/bits/basic_string.h ****       // _M_construct_aux is used to implement the 21.3.1 para 15 which
 248:/Library/DaisyToolchain/0.2.0/arm/arm-none-eabi/include/c++/10.3.1/bits/basic_string.h ****       // requires special behaviour if _InIterator is an integral type
 249:/Library/DaisyToolchain/0.2.0/arm/arm-none-eabi/include/c++/10.3.1/bits/basic_string.h ****       template<typename _InIterator>
 250:/Library/DaisyToolchain/0.2.0/arm/arm-none-eabi/include/c++/10.3.1/bits/basic_string.h ****         void
 251:/Library/DaisyToolchain/0.2.0/arm/arm-none-eabi/include/c++/10.3.1/bits/basic_string.h ****         _M_construct_aux(_InIterator __beg, _InIterator __end,
 252:/Library/DaisyToolchain/0.2.0/arm/arm-none-eabi/include/c++/10.3.1/bits/basic_string.h **** 			 std::__false_type)
 253:/Library/DaisyToolchain/0.2.0/arm/arm-none-eabi/include/c++/10.3.1/bits/basic_string.h **** 	{
 254:/Library/DaisyToolchain/0.2.0/arm/arm-none-eabi/include/c++/10.3.1/bits/basic_string.h ****           typedef typename iterator_traits<_InIterator>::iterator_category _Tag;
 255:/Library/DaisyToolchain/0.2.0/arm/arm-none-eabi/include/c++/10.3.1/bits/basic_string.h ****           _M_construct(__beg, __end, _Tag());
 256:/Library/DaisyToolchain/0.2.0/arm/arm-none-eabi/include/c++/10.3.1/bits/basic_string.h **** 	}
 257:/Library/DaisyToolchain/0.2.0/arm/arm-none-eabi/include/c++/10.3.1/bits/basic_string.h **** 
 258:/Library/DaisyToolchain/0.2.0/arm/arm-none-eabi/include/c++/10.3.1/bits/basic_string.h ****       // _GLIBCXX_RESOLVE_LIB_DEFECTS
 259:/Library/DaisyToolchain/0.2.0/arm/arm-none-eabi/include/c++/10.3.1/bits/basic_string.h ****       // 438. Ambiguity in the "do the right thing" clause
 260:/Library/DaisyToolchain/0.2.0/arm/arm-none-eabi/include/c++/10.3.1/bits/basic_string.h ****       template<typename _Integer>
 261:/Library/DaisyToolchain/0.2.0/arm/arm-none-eabi/include/c++/10.3.1/bits/basic_string.h ****         void
 262:/Library/DaisyToolchain/0.2.0/arm/arm-none-eabi/include/c++/10.3.1/bits/basic_string.h ****         _M_construct_aux(_Integer __beg, _Integer __end, std::__true_type)
 263:/Library/DaisyToolchain/0.2.0/arm/arm-none-eabi/include/c++/10.3.1/bits/basic_string.h **** 	{ _M_construct_aux_2(static_cast<size_type>(__beg), __end); }
 264:/Library/DaisyToolchain/0.2.0/arm/arm-none-eabi/include/c++/10.3.1/bits/basic_string.h **** 
 265:/Library/DaisyToolchain/0.2.0/arm/arm-none-eabi/include/c++/10.3.1/bits/basic_string.h ****       void
 266:/Library/DaisyToolchain/0.2.0/arm/arm-none-eabi/include/c++/10.3.1/bits/basic_string.h ****       _M_construct_aux_2(size_type __req, _CharT __c)
 267:/Library/DaisyToolchain/0.2.0/arm/arm-none-eabi/include/c++/10.3.1/bits/basic_string.h ****       { _M_construct(__req, __c); }
 268:/Library/DaisyToolchain/0.2.0/arm/arm-none-eabi/include/c++/10.3.1/bits/basic_string.h **** 
 269:/Library/DaisyToolchain/0.2.0/arm/arm-none-eabi/include/c++/10.3.1/bits/basic_string.h ****       template<typename _InIterator>
 270:/Library/DaisyToolchain/0.2.0/arm/arm-none-eabi/include/c++/10.3.1/bits/basic_string.h ****         void
 271:/Library/DaisyToolchain/0.2.0/arm/arm-none-eabi/include/c++/10.3.1/bits/basic_string.h ****         _M_construct(_InIterator __beg, _InIterator __end)
 272:/Library/DaisyToolchain/0.2.0/arm/arm-none-eabi/include/c++/10.3.1/bits/basic_string.h **** 	{
 273:/Library/DaisyToolchain/0.2.0/arm/arm-none-eabi/include/c++/10.3.1/bits/basic_string.h **** 	  typedef typename std::__is_integer<_InIterator>::__type _Integral;
 274:/Library/DaisyToolchain/0.2.0/arm/arm-none-eabi/include/c++/10.3.1/bits/basic_string.h **** 	  _M_construct_aux(__beg, __end, _Integral());
 275:/Library/DaisyToolchain/0.2.0/arm/arm-none-eabi/include/c++/10.3.1/bits/basic_string.h ****         }
 276:/Library/DaisyToolchain/0.2.0/arm/arm-none-eabi/include/c++/10.3.1/bits/basic_string.h **** 
 277:/Library/DaisyToolchain/0.2.0/arm/arm-none-eabi/include/c++/10.3.1/bits/basic_string.h ****       // For Input Iterators, used in istreambuf_iterators, etc.
 278:/Library/DaisyToolchain/0.2.0/arm/arm-none-eabi/include/c++/10.3.1/bits/basic_string.h ****       template<typename _InIterator>
 279:/Library/DaisyToolchain/0.2.0/arm/arm-none-eabi/include/c++/10.3.1/bits/basic_string.h ****         void
 280:/Library/DaisyToolchain/0.2.0/arm/arm-none-eabi/include/c++/10.3.1/bits/basic_string.h ****         _M_construct(_InIterator __beg, _InIterator __end,
 281:/Library/DaisyToolchain/0.2.0/arm/arm-none-eabi/include/c++/10.3.1/bits/basic_string.h **** 		     std::input_iterator_tag);
 282:/Library/DaisyToolchain/0.2.0/arm/arm-none-eabi/include/c++/10.3.1/bits/basic_string.h **** 
 283:/Library/DaisyToolchain/0.2.0/arm/arm-none-eabi/include/c++/10.3.1/bits/basic_string.h ****       // For forward_iterators up to random_access_iterators, used for
ARM GAS  /var/folders/3b/wwnq8dkd3pv49d6v3x9xry0m0000gn/T//ccooLPnb.s 			page 21


 284:/Library/DaisyToolchain/0.2.0/arm/arm-none-eabi/include/c++/10.3.1/bits/basic_string.h ****       // string::iterator, _CharT*, etc.
 285:/Library/DaisyToolchain/0.2.0/arm/arm-none-eabi/include/c++/10.3.1/bits/basic_string.h ****       template<typename _FwdIterator>
 286:/Library/DaisyToolchain/0.2.0/arm/arm-none-eabi/include/c++/10.3.1/bits/basic_string.h ****         void
 287:/Library/DaisyToolchain/0.2.0/arm/arm-none-eabi/include/c++/10.3.1/bits/basic_string.h ****         _M_construct(_FwdIterator __beg, _FwdIterator __end,
 288:/Library/DaisyToolchain/0.2.0/arm/arm-none-eabi/include/c++/10.3.1/bits/basic_string.h **** 		     std::forward_iterator_tag);
 289:/Library/DaisyToolchain/0.2.0/arm/arm-none-eabi/include/c++/10.3.1/bits/basic_string.h **** 
 290:/Library/DaisyToolchain/0.2.0/arm/arm-none-eabi/include/c++/10.3.1/bits/basic_string.h ****       void
 291:/Library/DaisyToolchain/0.2.0/arm/arm-none-eabi/include/c++/10.3.1/bits/basic_string.h ****       _M_construct(size_type __req, _CharT __c);
 292:/Library/DaisyToolchain/0.2.0/arm/arm-none-eabi/include/c++/10.3.1/bits/basic_string.h **** 
 293:/Library/DaisyToolchain/0.2.0/arm/arm-none-eabi/include/c++/10.3.1/bits/basic_string.h ****       allocator_type&
 294:/Library/DaisyToolchain/0.2.0/arm/arm-none-eabi/include/c++/10.3.1/bits/basic_string.h ****       _M_get_allocator()
 295:/Library/DaisyToolchain/0.2.0/arm/arm-none-eabi/include/c++/10.3.1/bits/basic_string.h ****       { return _M_dataplus; }
 296:/Library/DaisyToolchain/0.2.0/arm/arm-none-eabi/include/c++/10.3.1/bits/basic_string.h **** 
 297:/Library/DaisyToolchain/0.2.0/arm/arm-none-eabi/include/c++/10.3.1/bits/basic_string.h ****       const allocator_type&
 298:/Library/DaisyToolchain/0.2.0/arm/arm-none-eabi/include/c++/10.3.1/bits/basic_string.h ****       _M_get_allocator() const
 299:/Library/DaisyToolchain/0.2.0/arm/arm-none-eabi/include/c++/10.3.1/bits/basic_string.h ****       { return _M_dataplus; }
 300:/Library/DaisyToolchain/0.2.0/arm/arm-none-eabi/include/c++/10.3.1/bits/basic_string.h **** 
 301:/Library/DaisyToolchain/0.2.0/arm/arm-none-eabi/include/c++/10.3.1/bits/basic_string.h ****     private:
 302:/Library/DaisyToolchain/0.2.0/arm/arm-none-eabi/include/c++/10.3.1/bits/basic_string.h **** 
 303:/Library/DaisyToolchain/0.2.0/arm/arm-none-eabi/include/c++/10.3.1/bits/basic_string.h **** #ifdef _GLIBCXX_DISAMBIGUATE_REPLACE_INST
 304:/Library/DaisyToolchain/0.2.0/arm/arm-none-eabi/include/c++/10.3.1/bits/basic_string.h ****       // The explicit instantiations in misc-inst.cc require this due to
 305:/Library/DaisyToolchain/0.2.0/arm/arm-none-eabi/include/c++/10.3.1/bits/basic_string.h ****       // https://gcc.gnu.org/bugzilla/show_bug.cgi?id=64063
 306:/Library/DaisyToolchain/0.2.0/arm/arm-none-eabi/include/c++/10.3.1/bits/basic_string.h ****       template<typename _Tp, bool _Requires =
 307:/Library/DaisyToolchain/0.2.0/arm/arm-none-eabi/include/c++/10.3.1/bits/basic_string.h **** 	       !__are_same<_Tp, _CharT*>::__value
 308:/Library/DaisyToolchain/0.2.0/arm/arm-none-eabi/include/c++/10.3.1/bits/basic_string.h **** 	       && !__are_same<_Tp, const _CharT*>::__value
 309:/Library/DaisyToolchain/0.2.0/arm/arm-none-eabi/include/c++/10.3.1/bits/basic_string.h **** 	       && !__are_same<_Tp, iterator>::__value
 310:/Library/DaisyToolchain/0.2.0/arm/arm-none-eabi/include/c++/10.3.1/bits/basic_string.h **** 	       && !__are_same<_Tp, const_iterator>::__value>
 311:/Library/DaisyToolchain/0.2.0/arm/arm-none-eabi/include/c++/10.3.1/bits/basic_string.h **** 	struct __enable_if_not_native_iterator
 312:/Library/DaisyToolchain/0.2.0/arm/arm-none-eabi/include/c++/10.3.1/bits/basic_string.h **** 	{ typedef basic_string& __type; };
 313:/Library/DaisyToolchain/0.2.0/arm/arm-none-eabi/include/c++/10.3.1/bits/basic_string.h ****       template<typename _Tp>
 314:/Library/DaisyToolchain/0.2.0/arm/arm-none-eabi/include/c++/10.3.1/bits/basic_string.h **** 	struct __enable_if_not_native_iterator<_Tp, false> { };
 315:/Library/DaisyToolchain/0.2.0/arm/arm-none-eabi/include/c++/10.3.1/bits/basic_string.h **** #endif
 316:/Library/DaisyToolchain/0.2.0/arm/arm-none-eabi/include/c++/10.3.1/bits/basic_string.h **** 
 317:/Library/DaisyToolchain/0.2.0/arm/arm-none-eabi/include/c++/10.3.1/bits/basic_string.h ****       size_type
 318:/Library/DaisyToolchain/0.2.0/arm/arm-none-eabi/include/c++/10.3.1/bits/basic_string.h ****       _M_check(size_type __pos, const char* __s) const
 319:/Library/DaisyToolchain/0.2.0/arm/arm-none-eabi/include/c++/10.3.1/bits/basic_string.h ****       {
 320:/Library/DaisyToolchain/0.2.0/arm/arm-none-eabi/include/c++/10.3.1/bits/basic_string.h **** 	if (__pos > this->size())
 321:/Library/DaisyToolchain/0.2.0/arm/arm-none-eabi/include/c++/10.3.1/bits/basic_string.h **** 	  __throw_out_of_range_fmt(__N("%s: __pos (which is %zu) > "
 322:/Library/DaisyToolchain/0.2.0/arm/arm-none-eabi/include/c++/10.3.1/bits/basic_string.h **** 				       "this->size() (which is %zu)"),
 323:/Library/DaisyToolchain/0.2.0/arm/arm-none-eabi/include/c++/10.3.1/bits/basic_string.h **** 				   __s, __pos, this->size());
 324:/Library/DaisyToolchain/0.2.0/arm/arm-none-eabi/include/c++/10.3.1/bits/basic_string.h **** 	return __pos;
 325:/Library/DaisyToolchain/0.2.0/arm/arm-none-eabi/include/c++/10.3.1/bits/basic_string.h ****       }
 326:/Library/DaisyToolchain/0.2.0/arm/arm-none-eabi/include/c++/10.3.1/bits/basic_string.h **** 
 327:/Library/DaisyToolchain/0.2.0/arm/arm-none-eabi/include/c++/10.3.1/bits/basic_string.h ****       void
 328:/Library/DaisyToolchain/0.2.0/arm/arm-none-eabi/include/c++/10.3.1/bits/basic_string.h ****       _M_check_length(size_type __n1, size_type __n2, const char* __s) const
 329:/Library/DaisyToolchain/0.2.0/arm/arm-none-eabi/include/c++/10.3.1/bits/basic_string.h ****       {
 330:/Library/DaisyToolchain/0.2.0/arm/arm-none-eabi/include/c++/10.3.1/bits/basic_string.h **** 	if (this->max_size() - (this->size() - __n1) < __n2)
 331:/Library/DaisyToolchain/0.2.0/arm/arm-none-eabi/include/c++/10.3.1/bits/basic_string.h **** 	  __throw_length_error(__N(__s));
 332:/Library/DaisyToolchain/0.2.0/arm/arm-none-eabi/include/c++/10.3.1/bits/basic_string.h ****       }
 333:/Library/DaisyToolchain/0.2.0/arm/arm-none-eabi/include/c++/10.3.1/bits/basic_string.h **** 
 334:/Library/DaisyToolchain/0.2.0/arm/arm-none-eabi/include/c++/10.3.1/bits/basic_string.h **** 
 335:/Library/DaisyToolchain/0.2.0/arm/arm-none-eabi/include/c++/10.3.1/bits/basic_string.h ****       // NB: _M_limit doesn't check for a bad __pos value.
 336:/Library/DaisyToolchain/0.2.0/arm/arm-none-eabi/include/c++/10.3.1/bits/basic_string.h ****       size_type
 337:/Library/DaisyToolchain/0.2.0/arm/arm-none-eabi/include/c++/10.3.1/bits/basic_string.h ****       _M_limit(size_type __pos, size_type __off) const _GLIBCXX_NOEXCEPT
 338:/Library/DaisyToolchain/0.2.0/arm/arm-none-eabi/include/c++/10.3.1/bits/basic_string.h ****       {
 339:/Library/DaisyToolchain/0.2.0/arm/arm-none-eabi/include/c++/10.3.1/bits/basic_string.h **** 	const bool __testoff =  __off < this->size() - __pos;
 340:/Library/DaisyToolchain/0.2.0/arm/arm-none-eabi/include/c++/10.3.1/bits/basic_string.h **** 	return __testoff ? __off : this->size() - __pos;
ARM GAS  /var/folders/3b/wwnq8dkd3pv49d6v3x9xry0m0000gn/T//ccooLPnb.s 			page 22


 341:/Library/DaisyToolchain/0.2.0/arm/arm-none-eabi/include/c++/10.3.1/bits/basic_string.h ****       }
 342:/Library/DaisyToolchain/0.2.0/arm/arm-none-eabi/include/c++/10.3.1/bits/basic_string.h **** 
 343:/Library/DaisyToolchain/0.2.0/arm/arm-none-eabi/include/c++/10.3.1/bits/basic_string.h ****       // True if _Rep and source do not overlap.
 344:/Library/DaisyToolchain/0.2.0/arm/arm-none-eabi/include/c++/10.3.1/bits/basic_string.h ****       bool
 345:/Library/DaisyToolchain/0.2.0/arm/arm-none-eabi/include/c++/10.3.1/bits/basic_string.h ****       _M_disjunct(const _CharT* __s) const _GLIBCXX_NOEXCEPT
 346:/Library/DaisyToolchain/0.2.0/arm/arm-none-eabi/include/c++/10.3.1/bits/basic_string.h ****       {
 347:/Library/DaisyToolchain/0.2.0/arm/arm-none-eabi/include/c++/10.3.1/bits/basic_string.h **** 	return (less<const _CharT*>()(__s, _M_data())
 348:/Library/DaisyToolchain/0.2.0/arm/arm-none-eabi/include/c++/10.3.1/bits/basic_string.h **** 		|| less<const _CharT*>()(_M_data() + this->size(), __s));
 349:/Library/DaisyToolchain/0.2.0/arm/arm-none-eabi/include/c++/10.3.1/bits/basic_string.h ****       }
 350:/Library/DaisyToolchain/0.2.0/arm/arm-none-eabi/include/c++/10.3.1/bits/basic_string.h **** 
 351:/Library/DaisyToolchain/0.2.0/arm/arm-none-eabi/include/c++/10.3.1/bits/basic_string.h ****       // When __n = 1 way faster than the general multichar
 352:/Library/DaisyToolchain/0.2.0/arm/arm-none-eabi/include/c++/10.3.1/bits/basic_string.h ****       // traits_type::copy/move/assign.
 353:/Library/DaisyToolchain/0.2.0/arm/arm-none-eabi/include/c++/10.3.1/bits/basic_string.h ****       static void
 354:/Library/DaisyToolchain/0.2.0/arm/arm-none-eabi/include/c++/10.3.1/bits/basic_string.h ****       _S_copy(_CharT* __d, const _CharT* __s, size_type __n)
 355:/Library/DaisyToolchain/0.2.0/arm/arm-none-eabi/include/c++/10.3.1/bits/basic_string.h ****       {
 356:/Library/DaisyToolchain/0.2.0/arm/arm-none-eabi/include/c++/10.3.1/bits/basic_string.h **** 	if (__n == 1)
 222              		.loc 5 356 2 is_stmt 0 view .LVU46
 223 0014 012C     		cmp	r4, #1
 224              	.LBE527:
 225              	.LBE526:
 226              	.LBE525:
 227              	.LBB547:
 228              	.LBB524:
 195:/Library/DaisyToolchain/0.2.0/arm/arm-none-eabi/include/c++/10.3.1/bits/basic_string.h ****       { return _M_dataplus._M_p; }
 229              		.loc 5 195 28 view .LVU47
 230 0016 2868     		ldr	r0, [r5]
 231              	.LVL13:
 195:/Library/DaisyToolchain/0.2.0/arm/arm-none-eabi/include/c++/10.3.1/bits/basic_string.h ****       { return _M_dataplus._M_p; }
 232              		.loc 5 195 28 view .LVU48
 233              	.LBE524:
 234              	.LBE547:
 235              	.LBB548:
 236              	.LBI525:
 357:/Library/DaisyToolchain/0.2.0/arm/arm-none-eabi/include/c++/10.3.1/bits/basic_string.h **** 	  traits_type::assign(*__d, *__s);
 358:/Library/DaisyToolchain/0.2.0/arm/arm-none-eabi/include/c++/10.3.1/bits/basic_string.h **** 	else
 359:/Library/DaisyToolchain/0.2.0/arm/arm-none-eabi/include/c++/10.3.1/bits/basic_string.h **** 	  traits_type::copy(__d, __s, __n);
 360:/Library/DaisyToolchain/0.2.0/arm/arm-none-eabi/include/c++/10.3.1/bits/basic_string.h ****       }
 361:/Library/DaisyToolchain/0.2.0/arm/arm-none-eabi/include/c++/10.3.1/bits/basic_string.h **** 
 362:/Library/DaisyToolchain/0.2.0/arm/arm-none-eabi/include/c++/10.3.1/bits/basic_string.h ****       static void
 363:/Library/DaisyToolchain/0.2.0/arm/arm-none-eabi/include/c++/10.3.1/bits/basic_string.h ****       _S_move(_CharT* __d, const _CharT* __s, size_type __n)
 364:/Library/DaisyToolchain/0.2.0/arm/arm-none-eabi/include/c++/10.3.1/bits/basic_string.h ****       {
 365:/Library/DaisyToolchain/0.2.0/arm/arm-none-eabi/include/c++/10.3.1/bits/basic_string.h **** 	if (__n == 1)
 366:/Library/DaisyToolchain/0.2.0/arm/arm-none-eabi/include/c++/10.3.1/bits/basic_string.h **** 	  traits_type::assign(*__d, *__s);
 367:/Library/DaisyToolchain/0.2.0/arm/arm-none-eabi/include/c++/10.3.1/bits/basic_string.h **** 	else
 368:/Library/DaisyToolchain/0.2.0/arm/arm-none-eabi/include/c++/10.3.1/bits/basic_string.h **** 	  traits_type::move(__d, __s, __n);
 369:/Library/DaisyToolchain/0.2.0/arm/arm-none-eabi/include/c++/10.3.1/bits/basic_string.h ****       }
 370:/Library/DaisyToolchain/0.2.0/arm/arm-none-eabi/include/c++/10.3.1/bits/basic_string.h **** 
 371:/Library/DaisyToolchain/0.2.0/arm/arm-none-eabi/include/c++/10.3.1/bits/basic_string.h ****       static void
 372:/Library/DaisyToolchain/0.2.0/arm/arm-none-eabi/include/c++/10.3.1/bits/basic_string.h ****       _S_assign(_CharT* __d, size_type __n, _CharT __c)
 373:/Library/DaisyToolchain/0.2.0/arm/arm-none-eabi/include/c++/10.3.1/bits/basic_string.h ****       {
 374:/Library/DaisyToolchain/0.2.0/arm/arm-none-eabi/include/c++/10.3.1/bits/basic_string.h **** 	if (__n == 1)
 375:/Library/DaisyToolchain/0.2.0/arm/arm-none-eabi/include/c++/10.3.1/bits/basic_string.h **** 	  traits_type::assign(*__d, __c);
 376:/Library/DaisyToolchain/0.2.0/arm/arm-none-eabi/include/c++/10.3.1/bits/basic_string.h **** 	else
 377:/Library/DaisyToolchain/0.2.0/arm/arm-none-eabi/include/c++/10.3.1/bits/basic_string.h **** 	  traits_type::assign(__d, __n, __c);
 378:/Library/DaisyToolchain/0.2.0/arm/arm-none-eabi/include/c++/10.3.1/bits/basic_string.h ****       }
 379:/Library/DaisyToolchain/0.2.0/arm/arm-none-eabi/include/c++/10.3.1/bits/basic_string.h **** 
 380:/Library/DaisyToolchain/0.2.0/arm/arm-none-eabi/include/c++/10.3.1/bits/basic_string.h ****       // _S_copy_chars is a separate template to permit specialization
ARM GAS  /var/folders/3b/wwnq8dkd3pv49d6v3x9xry0m0000gn/T//ccooLPnb.s 			page 23


 381:/Library/DaisyToolchain/0.2.0/arm/arm-none-eabi/include/c++/10.3.1/bits/basic_string.h ****       // to optimize for the common case of pointers as iterators.
 382:/Library/DaisyToolchain/0.2.0/arm/arm-none-eabi/include/c++/10.3.1/bits/basic_string.h ****       template<class _Iterator>
 383:/Library/DaisyToolchain/0.2.0/arm/arm-none-eabi/include/c++/10.3.1/bits/basic_string.h ****         static void
 384:/Library/DaisyToolchain/0.2.0/arm/arm-none-eabi/include/c++/10.3.1/bits/basic_string.h ****         _S_copy_chars(_CharT* __p, _Iterator __k1, _Iterator __k2)
 385:/Library/DaisyToolchain/0.2.0/arm/arm-none-eabi/include/c++/10.3.1/bits/basic_string.h ****         {
 386:/Library/DaisyToolchain/0.2.0/arm/arm-none-eabi/include/c++/10.3.1/bits/basic_string.h **** 	  for (; __k1 != __k2; ++__k1, (void)++__p)
 387:/Library/DaisyToolchain/0.2.0/arm/arm-none-eabi/include/c++/10.3.1/bits/basic_string.h **** 	    traits_type::assign(*__p, *__k1); // These types are off.
 388:/Library/DaisyToolchain/0.2.0/arm/arm-none-eabi/include/c++/10.3.1/bits/basic_string.h **** 	}
 389:/Library/DaisyToolchain/0.2.0/arm/arm-none-eabi/include/c++/10.3.1/bits/basic_string.h **** 
 390:/Library/DaisyToolchain/0.2.0/arm/arm-none-eabi/include/c++/10.3.1/bits/basic_string.h ****       static void
 391:/Library/DaisyToolchain/0.2.0/arm/arm-none-eabi/include/c++/10.3.1/bits/basic_string.h ****       _S_copy_chars(_CharT* __p, iterator __k1, iterator __k2) _GLIBCXX_NOEXCEPT
 392:/Library/DaisyToolchain/0.2.0/arm/arm-none-eabi/include/c++/10.3.1/bits/basic_string.h ****       { _S_copy_chars(__p, __k1.base(), __k2.base()); }
 393:/Library/DaisyToolchain/0.2.0/arm/arm-none-eabi/include/c++/10.3.1/bits/basic_string.h **** 
 394:/Library/DaisyToolchain/0.2.0/arm/arm-none-eabi/include/c++/10.3.1/bits/basic_string.h ****       static void
 395:/Library/DaisyToolchain/0.2.0/arm/arm-none-eabi/include/c++/10.3.1/bits/basic_string.h ****       _S_copy_chars(_CharT* __p, const_iterator __k1, const_iterator __k2)
 396:/Library/DaisyToolchain/0.2.0/arm/arm-none-eabi/include/c++/10.3.1/bits/basic_string.h ****       _GLIBCXX_NOEXCEPT
 397:/Library/DaisyToolchain/0.2.0/arm/arm-none-eabi/include/c++/10.3.1/bits/basic_string.h ****       { _S_copy_chars(__p, __k1.base(), __k2.base()); }
 398:/Library/DaisyToolchain/0.2.0/arm/arm-none-eabi/include/c++/10.3.1/bits/basic_string.h **** 
 399:/Library/DaisyToolchain/0.2.0/arm/arm-none-eabi/include/c++/10.3.1/bits/basic_string.h ****       static void
 400:/Library/DaisyToolchain/0.2.0/arm/arm-none-eabi/include/c++/10.3.1/bits/basic_string.h ****       _S_copy_chars(_CharT* __p, _CharT* __k1, _CharT* __k2) _GLIBCXX_NOEXCEPT
 237              		.loc 5 400 7 is_stmt 1 view .LVU49
 238              	.LBB543:
 239              	.LBI526:
 354:/Library/DaisyToolchain/0.2.0/arm/arm-none-eabi/include/c++/10.3.1/bits/basic_string.h ****       {
 240              		.loc 5 354 7 view .LVU50
 241              	.LBB539:
 356:/Library/DaisyToolchain/0.2.0/arm/arm-none-eabi/include/c++/10.3.1/bits/basic_string.h **** 	  traits_type::assign(*__d, *__s);
 242              		.loc 5 356 2 is_stmt 0 view .LVU51
 243 0018 08D1     		bne	.L33
 244              	.LVL14:
 245              	.LBB528:
 246              	.LBI528:
 247              		.file 6 "/Library/DaisyToolchain/0.2.0/arm/arm-none-eabi/include/c++/10.3.1/bits/char_traits.h"
   1:/Library/DaisyToolchain/0.2.0/arm/arm-none-eabi/include/c++/10.3.1/bits/char_traits.h **** // Character Traits for use by standard string and iostream -*- C++ -*-
   2:/Library/DaisyToolchain/0.2.0/arm/arm-none-eabi/include/c++/10.3.1/bits/char_traits.h **** 
   3:/Library/DaisyToolchain/0.2.0/arm/arm-none-eabi/include/c++/10.3.1/bits/char_traits.h **** // Copyright (C) 1997-2020 Free Software Foundation, Inc.
   4:/Library/DaisyToolchain/0.2.0/arm/arm-none-eabi/include/c++/10.3.1/bits/char_traits.h **** //
   5:/Library/DaisyToolchain/0.2.0/arm/arm-none-eabi/include/c++/10.3.1/bits/char_traits.h **** // This file is part of the GNU ISO C++ Library.  This library is free
   6:/Library/DaisyToolchain/0.2.0/arm/arm-none-eabi/include/c++/10.3.1/bits/char_traits.h **** // software; you can redistribute it and/or modify it under the
   7:/Library/DaisyToolchain/0.2.0/arm/arm-none-eabi/include/c++/10.3.1/bits/char_traits.h **** // terms of the GNU General Public License as published by the
   8:/Library/DaisyToolchain/0.2.0/arm/arm-none-eabi/include/c++/10.3.1/bits/char_traits.h **** // Free Software Foundation; either version 3, or (at your option)
   9:/Library/DaisyToolchain/0.2.0/arm/arm-none-eabi/include/c++/10.3.1/bits/char_traits.h **** // any later version.
  10:/Library/DaisyToolchain/0.2.0/arm/arm-none-eabi/include/c++/10.3.1/bits/char_traits.h **** 
  11:/Library/DaisyToolchain/0.2.0/arm/arm-none-eabi/include/c++/10.3.1/bits/char_traits.h **** // This library is distributed in the hope that it will be useful,
  12:/Library/DaisyToolchain/0.2.0/arm/arm-none-eabi/include/c++/10.3.1/bits/char_traits.h **** // but WITHOUT ANY WARRANTY; without even the implied warranty of
  13:/Library/DaisyToolchain/0.2.0/arm/arm-none-eabi/include/c++/10.3.1/bits/char_traits.h **** // MERCHANTABILITY or FITNESS FOR A PARTICULAR PURPOSE.  See the
  14:/Library/DaisyToolchain/0.2.0/arm/arm-none-eabi/include/c++/10.3.1/bits/char_traits.h **** // GNU General Public License for more details.
  15:/Library/DaisyToolchain/0.2.0/arm/arm-none-eabi/include/c++/10.3.1/bits/char_traits.h **** 
  16:/Library/DaisyToolchain/0.2.0/arm/arm-none-eabi/include/c++/10.3.1/bits/char_traits.h **** // Under Section 7 of GPL version 3, you are granted additional
  17:/Library/DaisyToolchain/0.2.0/arm/arm-none-eabi/include/c++/10.3.1/bits/char_traits.h **** // permissions described in the GCC Runtime Library Exception, version
  18:/Library/DaisyToolchain/0.2.0/arm/arm-none-eabi/include/c++/10.3.1/bits/char_traits.h **** // 3.1, as published by the Free Software Foundation.
  19:/Library/DaisyToolchain/0.2.0/arm/arm-none-eabi/include/c++/10.3.1/bits/char_traits.h **** 
  20:/Library/DaisyToolchain/0.2.0/arm/arm-none-eabi/include/c++/10.3.1/bits/char_traits.h **** // You should have received a copy of the GNU General Public License and
  21:/Library/DaisyToolchain/0.2.0/arm/arm-none-eabi/include/c++/10.3.1/bits/char_traits.h **** // a copy of the GCC Runtime Library Exception along with this program;
  22:/Library/DaisyToolchain/0.2.0/arm/arm-none-eabi/include/c++/10.3.1/bits/char_traits.h **** // see the files COPYING3 and COPYING.RUNTIME respectively.  If not, see
  23:/Library/DaisyToolchain/0.2.0/arm/arm-none-eabi/include/c++/10.3.1/bits/char_traits.h **** // <http://www.gnu.org/licenses/>.
  24:/Library/DaisyToolchain/0.2.0/arm/arm-none-eabi/include/c++/10.3.1/bits/char_traits.h **** 
ARM GAS  /var/folders/3b/wwnq8dkd3pv49d6v3x9xry0m0000gn/T//ccooLPnb.s 			page 24


  25:/Library/DaisyToolchain/0.2.0/arm/arm-none-eabi/include/c++/10.3.1/bits/char_traits.h **** /** @file bits/char_traits.h
  26:/Library/DaisyToolchain/0.2.0/arm/arm-none-eabi/include/c++/10.3.1/bits/char_traits.h ****  *  This is an internal header file, included by other library headers.
  27:/Library/DaisyToolchain/0.2.0/arm/arm-none-eabi/include/c++/10.3.1/bits/char_traits.h ****  *  Do not attempt to use it directly. @headername{string}
  28:/Library/DaisyToolchain/0.2.0/arm/arm-none-eabi/include/c++/10.3.1/bits/char_traits.h ****  */
  29:/Library/DaisyToolchain/0.2.0/arm/arm-none-eabi/include/c++/10.3.1/bits/char_traits.h **** 
  30:/Library/DaisyToolchain/0.2.0/arm/arm-none-eabi/include/c++/10.3.1/bits/char_traits.h **** //
  31:/Library/DaisyToolchain/0.2.0/arm/arm-none-eabi/include/c++/10.3.1/bits/char_traits.h **** // ISO C++ 14882: 21  Strings library
  32:/Library/DaisyToolchain/0.2.0/arm/arm-none-eabi/include/c++/10.3.1/bits/char_traits.h **** //
  33:/Library/DaisyToolchain/0.2.0/arm/arm-none-eabi/include/c++/10.3.1/bits/char_traits.h **** 
  34:/Library/DaisyToolchain/0.2.0/arm/arm-none-eabi/include/c++/10.3.1/bits/char_traits.h **** #ifndef _CHAR_TRAITS_H
  35:/Library/DaisyToolchain/0.2.0/arm/arm-none-eabi/include/c++/10.3.1/bits/char_traits.h **** #define _CHAR_TRAITS_H 1
  36:/Library/DaisyToolchain/0.2.0/arm/arm-none-eabi/include/c++/10.3.1/bits/char_traits.h **** 
  37:/Library/DaisyToolchain/0.2.0/arm/arm-none-eabi/include/c++/10.3.1/bits/char_traits.h **** #pragma GCC system_header
  38:/Library/DaisyToolchain/0.2.0/arm/arm-none-eabi/include/c++/10.3.1/bits/char_traits.h **** 
  39:/Library/DaisyToolchain/0.2.0/arm/arm-none-eabi/include/c++/10.3.1/bits/char_traits.h **** #include <bits/stl_algobase.h>  // std::copy, std::fill_n
  40:/Library/DaisyToolchain/0.2.0/arm/arm-none-eabi/include/c++/10.3.1/bits/char_traits.h **** #include <bits/postypes.h>      // For streampos
  41:/Library/DaisyToolchain/0.2.0/arm/arm-none-eabi/include/c++/10.3.1/bits/char_traits.h **** #include <cwchar>               // For WEOF, wmemmove, wmemset, etc.
  42:/Library/DaisyToolchain/0.2.0/arm/arm-none-eabi/include/c++/10.3.1/bits/char_traits.h **** #if __cplusplus > 201703L
  43:/Library/DaisyToolchain/0.2.0/arm/arm-none-eabi/include/c++/10.3.1/bits/char_traits.h **** # include <compare>
  44:/Library/DaisyToolchain/0.2.0/arm/arm-none-eabi/include/c++/10.3.1/bits/char_traits.h **** #endif
  45:/Library/DaisyToolchain/0.2.0/arm/arm-none-eabi/include/c++/10.3.1/bits/char_traits.h **** 
  46:/Library/DaisyToolchain/0.2.0/arm/arm-none-eabi/include/c++/10.3.1/bits/char_traits.h **** #ifndef _GLIBCXX_ALWAYS_INLINE
  47:/Library/DaisyToolchain/0.2.0/arm/arm-none-eabi/include/c++/10.3.1/bits/char_traits.h **** # define _GLIBCXX_ALWAYS_INLINE inline __attribute__((__always_inline__))
  48:/Library/DaisyToolchain/0.2.0/arm/arm-none-eabi/include/c++/10.3.1/bits/char_traits.h **** #endif
  49:/Library/DaisyToolchain/0.2.0/arm/arm-none-eabi/include/c++/10.3.1/bits/char_traits.h **** 
  50:/Library/DaisyToolchain/0.2.0/arm/arm-none-eabi/include/c++/10.3.1/bits/char_traits.h **** namespace __gnu_cxx _GLIBCXX_VISIBILITY(default)
  51:/Library/DaisyToolchain/0.2.0/arm/arm-none-eabi/include/c++/10.3.1/bits/char_traits.h **** {
  52:/Library/DaisyToolchain/0.2.0/arm/arm-none-eabi/include/c++/10.3.1/bits/char_traits.h **** _GLIBCXX_BEGIN_NAMESPACE_VERSION
  53:/Library/DaisyToolchain/0.2.0/arm/arm-none-eabi/include/c++/10.3.1/bits/char_traits.h **** 
  54:/Library/DaisyToolchain/0.2.0/arm/arm-none-eabi/include/c++/10.3.1/bits/char_traits.h ****   /**
  55:/Library/DaisyToolchain/0.2.0/arm/arm-none-eabi/include/c++/10.3.1/bits/char_traits.h ****    *  @brief  Mapping from character type to associated types.
  56:/Library/DaisyToolchain/0.2.0/arm/arm-none-eabi/include/c++/10.3.1/bits/char_traits.h ****    *
  57:/Library/DaisyToolchain/0.2.0/arm/arm-none-eabi/include/c++/10.3.1/bits/char_traits.h ****    *  @note This is an implementation class for the generic version
  58:/Library/DaisyToolchain/0.2.0/arm/arm-none-eabi/include/c++/10.3.1/bits/char_traits.h ****    *  of char_traits.  It defines int_type, off_type, pos_type, and
  59:/Library/DaisyToolchain/0.2.0/arm/arm-none-eabi/include/c++/10.3.1/bits/char_traits.h ****    *  state_type.  By default these are unsigned long, streamoff,
  60:/Library/DaisyToolchain/0.2.0/arm/arm-none-eabi/include/c++/10.3.1/bits/char_traits.h ****    *  streampos, and mbstate_t.  Users who need a different set of
  61:/Library/DaisyToolchain/0.2.0/arm/arm-none-eabi/include/c++/10.3.1/bits/char_traits.h ****    *  types, but who don't need to change the definitions of any function
  62:/Library/DaisyToolchain/0.2.0/arm/arm-none-eabi/include/c++/10.3.1/bits/char_traits.h ****    *  defined in char_traits, can specialize __gnu_cxx::_Char_types
  63:/Library/DaisyToolchain/0.2.0/arm/arm-none-eabi/include/c++/10.3.1/bits/char_traits.h ****    *  while leaving __gnu_cxx::char_traits alone. */
  64:/Library/DaisyToolchain/0.2.0/arm/arm-none-eabi/include/c++/10.3.1/bits/char_traits.h ****   template<typename _CharT>
  65:/Library/DaisyToolchain/0.2.0/arm/arm-none-eabi/include/c++/10.3.1/bits/char_traits.h ****     struct _Char_types
  66:/Library/DaisyToolchain/0.2.0/arm/arm-none-eabi/include/c++/10.3.1/bits/char_traits.h ****     {
  67:/Library/DaisyToolchain/0.2.0/arm/arm-none-eabi/include/c++/10.3.1/bits/char_traits.h ****       typedef unsigned long   int_type;
  68:/Library/DaisyToolchain/0.2.0/arm/arm-none-eabi/include/c++/10.3.1/bits/char_traits.h ****       typedef std::streampos  pos_type;
  69:/Library/DaisyToolchain/0.2.0/arm/arm-none-eabi/include/c++/10.3.1/bits/char_traits.h ****       typedef std::streamoff  off_type;
  70:/Library/DaisyToolchain/0.2.0/arm/arm-none-eabi/include/c++/10.3.1/bits/char_traits.h ****       typedef std::mbstate_t  state_type;
  71:/Library/DaisyToolchain/0.2.0/arm/arm-none-eabi/include/c++/10.3.1/bits/char_traits.h ****     };
  72:/Library/DaisyToolchain/0.2.0/arm/arm-none-eabi/include/c++/10.3.1/bits/char_traits.h **** 
  73:/Library/DaisyToolchain/0.2.0/arm/arm-none-eabi/include/c++/10.3.1/bits/char_traits.h **** 
  74:/Library/DaisyToolchain/0.2.0/arm/arm-none-eabi/include/c++/10.3.1/bits/char_traits.h ****   /**
  75:/Library/DaisyToolchain/0.2.0/arm/arm-none-eabi/include/c++/10.3.1/bits/char_traits.h ****    *  @brief  Base class used to implement std::char_traits.
  76:/Library/DaisyToolchain/0.2.0/arm/arm-none-eabi/include/c++/10.3.1/bits/char_traits.h ****    *
  77:/Library/DaisyToolchain/0.2.0/arm/arm-none-eabi/include/c++/10.3.1/bits/char_traits.h ****    *  @note For any given actual character type, this definition is
  78:/Library/DaisyToolchain/0.2.0/arm/arm-none-eabi/include/c++/10.3.1/bits/char_traits.h ****    *  probably wrong.  (Most of the member functions are likely to be
  79:/Library/DaisyToolchain/0.2.0/arm/arm-none-eabi/include/c++/10.3.1/bits/char_traits.h ****    *  right, but the int_type and state_type typedefs, and the eof()
  80:/Library/DaisyToolchain/0.2.0/arm/arm-none-eabi/include/c++/10.3.1/bits/char_traits.h ****    *  member function, are likely to be wrong.)  The reason this class
  81:/Library/DaisyToolchain/0.2.0/arm/arm-none-eabi/include/c++/10.3.1/bits/char_traits.h ****    *  exists is so users can specialize it.  Classes in namespace std
ARM GAS  /var/folders/3b/wwnq8dkd3pv49d6v3x9xry0m0000gn/T//ccooLPnb.s 			page 25


  82:/Library/DaisyToolchain/0.2.0/arm/arm-none-eabi/include/c++/10.3.1/bits/char_traits.h ****    *  may not be specialized for fundamental types, but classes in
  83:/Library/DaisyToolchain/0.2.0/arm/arm-none-eabi/include/c++/10.3.1/bits/char_traits.h ****    *  namespace __gnu_cxx may be.
  84:/Library/DaisyToolchain/0.2.0/arm/arm-none-eabi/include/c++/10.3.1/bits/char_traits.h ****    *
  85:/Library/DaisyToolchain/0.2.0/arm/arm-none-eabi/include/c++/10.3.1/bits/char_traits.h ****    *  See https://gcc.gnu.org/onlinedocs/libstdc++/manual/strings.html#strings.string.character_typ
  86:/Library/DaisyToolchain/0.2.0/arm/arm-none-eabi/include/c++/10.3.1/bits/char_traits.h ****    *  for advice on how to make use of this class for @a unusual character
  87:/Library/DaisyToolchain/0.2.0/arm/arm-none-eabi/include/c++/10.3.1/bits/char_traits.h ****    *  types. Also, check out include/ext/pod_char_traits.h.  
  88:/Library/DaisyToolchain/0.2.0/arm/arm-none-eabi/include/c++/10.3.1/bits/char_traits.h ****    */
  89:/Library/DaisyToolchain/0.2.0/arm/arm-none-eabi/include/c++/10.3.1/bits/char_traits.h ****   template<typename _CharT>
  90:/Library/DaisyToolchain/0.2.0/arm/arm-none-eabi/include/c++/10.3.1/bits/char_traits.h ****     struct char_traits
  91:/Library/DaisyToolchain/0.2.0/arm/arm-none-eabi/include/c++/10.3.1/bits/char_traits.h ****     {
  92:/Library/DaisyToolchain/0.2.0/arm/arm-none-eabi/include/c++/10.3.1/bits/char_traits.h ****       typedef _CharT                                    char_type;
  93:/Library/DaisyToolchain/0.2.0/arm/arm-none-eabi/include/c++/10.3.1/bits/char_traits.h ****       typedef typename _Char_types<_CharT>::int_type    int_type;
  94:/Library/DaisyToolchain/0.2.0/arm/arm-none-eabi/include/c++/10.3.1/bits/char_traits.h ****       typedef typename _Char_types<_CharT>::pos_type    pos_type;
  95:/Library/DaisyToolchain/0.2.0/arm/arm-none-eabi/include/c++/10.3.1/bits/char_traits.h ****       typedef typename _Char_types<_CharT>::off_type    off_type;
  96:/Library/DaisyToolchain/0.2.0/arm/arm-none-eabi/include/c++/10.3.1/bits/char_traits.h ****       typedef typename _Char_types<_CharT>::state_type  state_type;
  97:/Library/DaisyToolchain/0.2.0/arm/arm-none-eabi/include/c++/10.3.1/bits/char_traits.h **** #if __cpp_lib_three_way_comparison
  98:/Library/DaisyToolchain/0.2.0/arm/arm-none-eabi/include/c++/10.3.1/bits/char_traits.h ****       using comparison_category = std::strong_ordering;
  99:/Library/DaisyToolchain/0.2.0/arm/arm-none-eabi/include/c++/10.3.1/bits/char_traits.h **** #endif
 100:/Library/DaisyToolchain/0.2.0/arm/arm-none-eabi/include/c++/10.3.1/bits/char_traits.h **** 
 101:/Library/DaisyToolchain/0.2.0/arm/arm-none-eabi/include/c++/10.3.1/bits/char_traits.h ****       static _GLIBCXX14_CONSTEXPR void
 102:/Library/DaisyToolchain/0.2.0/arm/arm-none-eabi/include/c++/10.3.1/bits/char_traits.h ****       assign(char_type& __c1, const char_type& __c2)
 103:/Library/DaisyToolchain/0.2.0/arm/arm-none-eabi/include/c++/10.3.1/bits/char_traits.h ****       { __c1 = __c2; }
 104:/Library/DaisyToolchain/0.2.0/arm/arm-none-eabi/include/c++/10.3.1/bits/char_traits.h **** 
 105:/Library/DaisyToolchain/0.2.0/arm/arm-none-eabi/include/c++/10.3.1/bits/char_traits.h ****       static _GLIBCXX_CONSTEXPR bool
 106:/Library/DaisyToolchain/0.2.0/arm/arm-none-eabi/include/c++/10.3.1/bits/char_traits.h ****       eq(const char_type& __c1, const char_type& __c2)
 107:/Library/DaisyToolchain/0.2.0/arm/arm-none-eabi/include/c++/10.3.1/bits/char_traits.h ****       { return __c1 == __c2; }
 108:/Library/DaisyToolchain/0.2.0/arm/arm-none-eabi/include/c++/10.3.1/bits/char_traits.h **** 
 109:/Library/DaisyToolchain/0.2.0/arm/arm-none-eabi/include/c++/10.3.1/bits/char_traits.h ****       static _GLIBCXX_CONSTEXPR bool
 110:/Library/DaisyToolchain/0.2.0/arm/arm-none-eabi/include/c++/10.3.1/bits/char_traits.h ****       lt(const char_type& __c1, const char_type& __c2)
 111:/Library/DaisyToolchain/0.2.0/arm/arm-none-eabi/include/c++/10.3.1/bits/char_traits.h ****       { return __c1 < __c2; }
 112:/Library/DaisyToolchain/0.2.0/arm/arm-none-eabi/include/c++/10.3.1/bits/char_traits.h **** 
 113:/Library/DaisyToolchain/0.2.0/arm/arm-none-eabi/include/c++/10.3.1/bits/char_traits.h ****       static _GLIBCXX14_CONSTEXPR int
 114:/Library/DaisyToolchain/0.2.0/arm/arm-none-eabi/include/c++/10.3.1/bits/char_traits.h ****       compare(const char_type* __s1, const char_type* __s2, std::size_t __n);
 115:/Library/DaisyToolchain/0.2.0/arm/arm-none-eabi/include/c++/10.3.1/bits/char_traits.h **** 
 116:/Library/DaisyToolchain/0.2.0/arm/arm-none-eabi/include/c++/10.3.1/bits/char_traits.h ****       static _GLIBCXX14_CONSTEXPR std::size_t
 117:/Library/DaisyToolchain/0.2.0/arm/arm-none-eabi/include/c++/10.3.1/bits/char_traits.h ****       length(const char_type* __s);
 118:/Library/DaisyToolchain/0.2.0/arm/arm-none-eabi/include/c++/10.3.1/bits/char_traits.h **** 
 119:/Library/DaisyToolchain/0.2.0/arm/arm-none-eabi/include/c++/10.3.1/bits/char_traits.h ****       static _GLIBCXX14_CONSTEXPR const char_type*
 120:/Library/DaisyToolchain/0.2.0/arm/arm-none-eabi/include/c++/10.3.1/bits/char_traits.h ****       find(const char_type* __s, std::size_t __n, const char_type& __a);
 121:/Library/DaisyToolchain/0.2.0/arm/arm-none-eabi/include/c++/10.3.1/bits/char_traits.h **** 
 122:/Library/DaisyToolchain/0.2.0/arm/arm-none-eabi/include/c++/10.3.1/bits/char_traits.h ****       static _GLIBCXX20_CONSTEXPR char_type*
 123:/Library/DaisyToolchain/0.2.0/arm/arm-none-eabi/include/c++/10.3.1/bits/char_traits.h ****       move(char_type* __s1, const char_type* __s2, std::size_t __n);
 124:/Library/DaisyToolchain/0.2.0/arm/arm-none-eabi/include/c++/10.3.1/bits/char_traits.h **** 
 125:/Library/DaisyToolchain/0.2.0/arm/arm-none-eabi/include/c++/10.3.1/bits/char_traits.h ****       static _GLIBCXX20_CONSTEXPR char_type*
 126:/Library/DaisyToolchain/0.2.0/arm/arm-none-eabi/include/c++/10.3.1/bits/char_traits.h ****       copy(char_type* __s1, const char_type* __s2, std::size_t __n);
 127:/Library/DaisyToolchain/0.2.0/arm/arm-none-eabi/include/c++/10.3.1/bits/char_traits.h **** 
 128:/Library/DaisyToolchain/0.2.0/arm/arm-none-eabi/include/c++/10.3.1/bits/char_traits.h ****       static _GLIBCXX20_CONSTEXPR char_type*
 129:/Library/DaisyToolchain/0.2.0/arm/arm-none-eabi/include/c++/10.3.1/bits/char_traits.h ****       assign(char_type* __s, std::size_t __n, char_type __a);
 130:/Library/DaisyToolchain/0.2.0/arm/arm-none-eabi/include/c++/10.3.1/bits/char_traits.h **** 
 131:/Library/DaisyToolchain/0.2.0/arm/arm-none-eabi/include/c++/10.3.1/bits/char_traits.h ****       static _GLIBCXX_CONSTEXPR char_type
 132:/Library/DaisyToolchain/0.2.0/arm/arm-none-eabi/include/c++/10.3.1/bits/char_traits.h ****       to_char_type(const int_type& __c)
 133:/Library/DaisyToolchain/0.2.0/arm/arm-none-eabi/include/c++/10.3.1/bits/char_traits.h ****       { return static_cast<char_type>(__c); }
 134:/Library/DaisyToolchain/0.2.0/arm/arm-none-eabi/include/c++/10.3.1/bits/char_traits.h **** 
 135:/Library/DaisyToolchain/0.2.0/arm/arm-none-eabi/include/c++/10.3.1/bits/char_traits.h ****       static _GLIBCXX_CONSTEXPR int_type
 136:/Library/DaisyToolchain/0.2.0/arm/arm-none-eabi/include/c++/10.3.1/bits/char_traits.h ****       to_int_type(const char_type& __c)
 137:/Library/DaisyToolchain/0.2.0/arm/arm-none-eabi/include/c++/10.3.1/bits/char_traits.h ****       { return static_cast<int_type>(__c); }
 138:/Library/DaisyToolchain/0.2.0/arm/arm-none-eabi/include/c++/10.3.1/bits/char_traits.h **** 
ARM GAS  /var/folders/3b/wwnq8dkd3pv49d6v3x9xry0m0000gn/T//ccooLPnb.s 			page 26


 139:/Library/DaisyToolchain/0.2.0/arm/arm-none-eabi/include/c++/10.3.1/bits/char_traits.h ****       static _GLIBCXX_CONSTEXPR bool
 140:/Library/DaisyToolchain/0.2.0/arm/arm-none-eabi/include/c++/10.3.1/bits/char_traits.h ****       eq_int_type(const int_type& __c1, const int_type& __c2)
 141:/Library/DaisyToolchain/0.2.0/arm/arm-none-eabi/include/c++/10.3.1/bits/char_traits.h ****       { return __c1 == __c2; }
 142:/Library/DaisyToolchain/0.2.0/arm/arm-none-eabi/include/c++/10.3.1/bits/char_traits.h **** 
 143:/Library/DaisyToolchain/0.2.0/arm/arm-none-eabi/include/c++/10.3.1/bits/char_traits.h ****       static _GLIBCXX_CONSTEXPR int_type
 144:/Library/DaisyToolchain/0.2.0/arm/arm-none-eabi/include/c++/10.3.1/bits/char_traits.h ****       eof()
 145:/Library/DaisyToolchain/0.2.0/arm/arm-none-eabi/include/c++/10.3.1/bits/char_traits.h ****       { return static_cast<int_type>(_GLIBCXX_STDIO_EOF); }
 146:/Library/DaisyToolchain/0.2.0/arm/arm-none-eabi/include/c++/10.3.1/bits/char_traits.h **** 
 147:/Library/DaisyToolchain/0.2.0/arm/arm-none-eabi/include/c++/10.3.1/bits/char_traits.h ****       static _GLIBCXX_CONSTEXPR int_type
 148:/Library/DaisyToolchain/0.2.0/arm/arm-none-eabi/include/c++/10.3.1/bits/char_traits.h ****       not_eof(const int_type& __c)
 149:/Library/DaisyToolchain/0.2.0/arm/arm-none-eabi/include/c++/10.3.1/bits/char_traits.h ****       { return !eq_int_type(__c, eof()) ? __c : to_int_type(char_type()); }
 150:/Library/DaisyToolchain/0.2.0/arm/arm-none-eabi/include/c++/10.3.1/bits/char_traits.h ****     };
 151:/Library/DaisyToolchain/0.2.0/arm/arm-none-eabi/include/c++/10.3.1/bits/char_traits.h **** 
 152:/Library/DaisyToolchain/0.2.0/arm/arm-none-eabi/include/c++/10.3.1/bits/char_traits.h ****   template<typename _CharT>
 153:/Library/DaisyToolchain/0.2.0/arm/arm-none-eabi/include/c++/10.3.1/bits/char_traits.h ****     _GLIBCXX14_CONSTEXPR int
 154:/Library/DaisyToolchain/0.2.0/arm/arm-none-eabi/include/c++/10.3.1/bits/char_traits.h ****     char_traits<_CharT>::
 155:/Library/DaisyToolchain/0.2.0/arm/arm-none-eabi/include/c++/10.3.1/bits/char_traits.h ****     compare(const char_type* __s1, const char_type* __s2, std::size_t __n)
 156:/Library/DaisyToolchain/0.2.0/arm/arm-none-eabi/include/c++/10.3.1/bits/char_traits.h ****     {
 157:/Library/DaisyToolchain/0.2.0/arm/arm-none-eabi/include/c++/10.3.1/bits/char_traits.h ****       for (std::size_t __i = 0; __i < __n; ++__i)
 158:/Library/DaisyToolchain/0.2.0/arm/arm-none-eabi/include/c++/10.3.1/bits/char_traits.h **** 	if (lt(__s1[__i], __s2[__i]))
 159:/Library/DaisyToolchain/0.2.0/arm/arm-none-eabi/include/c++/10.3.1/bits/char_traits.h **** 	  return -1;
 160:/Library/DaisyToolchain/0.2.0/arm/arm-none-eabi/include/c++/10.3.1/bits/char_traits.h **** 	else if (lt(__s2[__i], __s1[__i]))
 161:/Library/DaisyToolchain/0.2.0/arm/arm-none-eabi/include/c++/10.3.1/bits/char_traits.h **** 	  return 1;
 162:/Library/DaisyToolchain/0.2.0/arm/arm-none-eabi/include/c++/10.3.1/bits/char_traits.h ****       return 0;
 163:/Library/DaisyToolchain/0.2.0/arm/arm-none-eabi/include/c++/10.3.1/bits/char_traits.h ****     }
 164:/Library/DaisyToolchain/0.2.0/arm/arm-none-eabi/include/c++/10.3.1/bits/char_traits.h **** 
 165:/Library/DaisyToolchain/0.2.0/arm/arm-none-eabi/include/c++/10.3.1/bits/char_traits.h ****   template<typename _CharT>
 166:/Library/DaisyToolchain/0.2.0/arm/arm-none-eabi/include/c++/10.3.1/bits/char_traits.h ****     _GLIBCXX14_CONSTEXPR std::size_t
 167:/Library/DaisyToolchain/0.2.0/arm/arm-none-eabi/include/c++/10.3.1/bits/char_traits.h ****     char_traits<_CharT>::
 168:/Library/DaisyToolchain/0.2.0/arm/arm-none-eabi/include/c++/10.3.1/bits/char_traits.h ****     length(const char_type* __p)
 169:/Library/DaisyToolchain/0.2.0/arm/arm-none-eabi/include/c++/10.3.1/bits/char_traits.h ****     {
 170:/Library/DaisyToolchain/0.2.0/arm/arm-none-eabi/include/c++/10.3.1/bits/char_traits.h ****       std::size_t __i = 0;
 171:/Library/DaisyToolchain/0.2.0/arm/arm-none-eabi/include/c++/10.3.1/bits/char_traits.h ****       while (!eq(__p[__i], char_type()))
 172:/Library/DaisyToolchain/0.2.0/arm/arm-none-eabi/include/c++/10.3.1/bits/char_traits.h ****         ++__i;
 173:/Library/DaisyToolchain/0.2.0/arm/arm-none-eabi/include/c++/10.3.1/bits/char_traits.h ****       return __i;
 174:/Library/DaisyToolchain/0.2.0/arm/arm-none-eabi/include/c++/10.3.1/bits/char_traits.h ****     }
 175:/Library/DaisyToolchain/0.2.0/arm/arm-none-eabi/include/c++/10.3.1/bits/char_traits.h **** 
 176:/Library/DaisyToolchain/0.2.0/arm/arm-none-eabi/include/c++/10.3.1/bits/char_traits.h ****   template<typename _CharT>
 177:/Library/DaisyToolchain/0.2.0/arm/arm-none-eabi/include/c++/10.3.1/bits/char_traits.h ****     _GLIBCXX14_CONSTEXPR const typename char_traits<_CharT>::char_type*
 178:/Library/DaisyToolchain/0.2.0/arm/arm-none-eabi/include/c++/10.3.1/bits/char_traits.h ****     char_traits<_CharT>::
 179:/Library/DaisyToolchain/0.2.0/arm/arm-none-eabi/include/c++/10.3.1/bits/char_traits.h ****     find(const char_type* __s, std::size_t __n, const char_type& __a)
 180:/Library/DaisyToolchain/0.2.0/arm/arm-none-eabi/include/c++/10.3.1/bits/char_traits.h ****     {
 181:/Library/DaisyToolchain/0.2.0/arm/arm-none-eabi/include/c++/10.3.1/bits/char_traits.h ****       for (std::size_t __i = 0; __i < __n; ++__i)
 182:/Library/DaisyToolchain/0.2.0/arm/arm-none-eabi/include/c++/10.3.1/bits/char_traits.h ****         if (eq(__s[__i], __a))
 183:/Library/DaisyToolchain/0.2.0/arm/arm-none-eabi/include/c++/10.3.1/bits/char_traits.h ****           return __s + __i;
 184:/Library/DaisyToolchain/0.2.0/arm/arm-none-eabi/include/c++/10.3.1/bits/char_traits.h ****       return 0;
 185:/Library/DaisyToolchain/0.2.0/arm/arm-none-eabi/include/c++/10.3.1/bits/char_traits.h ****     }
 186:/Library/DaisyToolchain/0.2.0/arm/arm-none-eabi/include/c++/10.3.1/bits/char_traits.h **** 
 187:/Library/DaisyToolchain/0.2.0/arm/arm-none-eabi/include/c++/10.3.1/bits/char_traits.h ****   template<typename _CharT>
 188:/Library/DaisyToolchain/0.2.0/arm/arm-none-eabi/include/c++/10.3.1/bits/char_traits.h ****     _GLIBCXX20_CONSTEXPR
 189:/Library/DaisyToolchain/0.2.0/arm/arm-none-eabi/include/c++/10.3.1/bits/char_traits.h ****     typename char_traits<_CharT>::char_type*
 190:/Library/DaisyToolchain/0.2.0/arm/arm-none-eabi/include/c++/10.3.1/bits/char_traits.h ****     char_traits<_CharT>::
 191:/Library/DaisyToolchain/0.2.0/arm/arm-none-eabi/include/c++/10.3.1/bits/char_traits.h ****     move(char_type* __s1, const char_type* __s2, std::size_t __n)
 192:/Library/DaisyToolchain/0.2.0/arm/arm-none-eabi/include/c++/10.3.1/bits/char_traits.h ****     {
 193:/Library/DaisyToolchain/0.2.0/arm/arm-none-eabi/include/c++/10.3.1/bits/char_traits.h ****       if (__n == 0)
 194:/Library/DaisyToolchain/0.2.0/arm/arm-none-eabi/include/c++/10.3.1/bits/char_traits.h **** 	return __s1;
 195:/Library/DaisyToolchain/0.2.0/arm/arm-none-eabi/include/c++/10.3.1/bits/char_traits.h **** #ifdef __cpp_lib_is_constant_evaluated
ARM GAS  /var/folders/3b/wwnq8dkd3pv49d6v3x9xry0m0000gn/T//ccooLPnb.s 			page 27


 196:/Library/DaisyToolchain/0.2.0/arm/arm-none-eabi/include/c++/10.3.1/bits/char_traits.h ****       if (std::is_constant_evaluated())
 197:/Library/DaisyToolchain/0.2.0/arm/arm-none-eabi/include/c++/10.3.1/bits/char_traits.h **** 	{
 198:/Library/DaisyToolchain/0.2.0/arm/arm-none-eabi/include/c++/10.3.1/bits/char_traits.h **** 	  if (__s1 > __s2 && __s1 < __s2 + __n)
 199:/Library/DaisyToolchain/0.2.0/arm/arm-none-eabi/include/c++/10.3.1/bits/char_traits.h **** 	    std::copy_backward(__s2, __s2 + __n, __s1 + __n);
 200:/Library/DaisyToolchain/0.2.0/arm/arm-none-eabi/include/c++/10.3.1/bits/char_traits.h **** 	  else
 201:/Library/DaisyToolchain/0.2.0/arm/arm-none-eabi/include/c++/10.3.1/bits/char_traits.h **** 	    std::copy(__s2, __s2 + __n, __s1);
 202:/Library/DaisyToolchain/0.2.0/arm/arm-none-eabi/include/c++/10.3.1/bits/char_traits.h **** 	  return __s1;
 203:/Library/DaisyToolchain/0.2.0/arm/arm-none-eabi/include/c++/10.3.1/bits/char_traits.h **** 	}
 204:/Library/DaisyToolchain/0.2.0/arm/arm-none-eabi/include/c++/10.3.1/bits/char_traits.h **** #endif
 205:/Library/DaisyToolchain/0.2.0/arm/arm-none-eabi/include/c++/10.3.1/bits/char_traits.h ****       return static_cast<_CharT*>(__builtin_memmove(__s1, __s2,
 206:/Library/DaisyToolchain/0.2.0/arm/arm-none-eabi/include/c++/10.3.1/bits/char_traits.h **** 						    __n * sizeof(char_type)));
 207:/Library/DaisyToolchain/0.2.0/arm/arm-none-eabi/include/c++/10.3.1/bits/char_traits.h ****     }
 208:/Library/DaisyToolchain/0.2.0/arm/arm-none-eabi/include/c++/10.3.1/bits/char_traits.h **** 
 209:/Library/DaisyToolchain/0.2.0/arm/arm-none-eabi/include/c++/10.3.1/bits/char_traits.h ****   template<typename _CharT>
 210:/Library/DaisyToolchain/0.2.0/arm/arm-none-eabi/include/c++/10.3.1/bits/char_traits.h ****     _GLIBCXX20_CONSTEXPR
 211:/Library/DaisyToolchain/0.2.0/arm/arm-none-eabi/include/c++/10.3.1/bits/char_traits.h ****     typename char_traits<_CharT>::char_type*
 212:/Library/DaisyToolchain/0.2.0/arm/arm-none-eabi/include/c++/10.3.1/bits/char_traits.h ****     char_traits<_CharT>::
 213:/Library/DaisyToolchain/0.2.0/arm/arm-none-eabi/include/c++/10.3.1/bits/char_traits.h ****     copy(char_type* __s1, const char_type* __s2, std::size_t __n)
 214:/Library/DaisyToolchain/0.2.0/arm/arm-none-eabi/include/c++/10.3.1/bits/char_traits.h ****     {
 215:/Library/DaisyToolchain/0.2.0/arm/arm-none-eabi/include/c++/10.3.1/bits/char_traits.h ****       // NB: Inline std::copy so no recursive dependencies.
 216:/Library/DaisyToolchain/0.2.0/arm/arm-none-eabi/include/c++/10.3.1/bits/char_traits.h ****       std::copy(__s2, __s2 + __n, __s1);
 217:/Library/DaisyToolchain/0.2.0/arm/arm-none-eabi/include/c++/10.3.1/bits/char_traits.h ****       return __s1;
 218:/Library/DaisyToolchain/0.2.0/arm/arm-none-eabi/include/c++/10.3.1/bits/char_traits.h ****     }
 219:/Library/DaisyToolchain/0.2.0/arm/arm-none-eabi/include/c++/10.3.1/bits/char_traits.h **** 
 220:/Library/DaisyToolchain/0.2.0/arm/arm-none-eabi/include/c++/10.3.1/bits/char_traits.h ****   template<typename _CharT>
 221:/Library/DaisyToolchain/0.2.0/arm/arm-none-eabi/include/c++/10.3.1/bits/char_traits.h ****     _GLIBCXX20_CONSTEXPR
 222:/Library/DaisyToolchain/0.2.0/arm/arm-none-eabi/include/c++/10.3.1/bits/char_traits.h ****     typename char_traits<_CharT>::char_type*
 223:/Library/DaisyToolchain/0.2.0/arm/arm-none-eabi/include/c++/10.3.1/bits/char_traits.h ****     char_traits<_CharT>::
 224:/Library/DaisyToolchain/0.2.0/arm/arm-none-eabi/include/c++/10.3.1/bits/char_traits.h ****     assign(char_type* __s, std::size_t __n, char_type __a)
 225:/Library/DaisyToolchain/0.2.0/arm/arm-none-eabi/include/c++/10.3.1/bits/char_traits.h ****     {
 226:/Library/DaisyToolchain/0.2.0/arm/arm-none-eabi/include/c++/10.3.1/bits/char_traits.h ****       // NB: Inline std::fill_n so no recursive dependencies.
 227:/Library/DaisyToolchain/0.2.0/arm/arm-none-eabi/include/c++/10.3.1/bits/char_traits.h ****       std::fill_n(__s, __n, __a);
 228:/Library/DaisyToolchain/0.2.0/arm/arm-none-eabi/include/c++/10.3.1/bits/char_traits.h ****       return __s;
 229:/Library/DaisyToolchain/0.2.0/arm/arm-none-eabi/include/c++/10.3.1/bits/char_traits.h ****     }
 230:/Library/DaisyToolchain/0.2.0/arm/arm-none-eabi/include/c++/10.3.1/bits/char_traits.h **** 
 231:/Library/DaisyToolchain/0.2.0/arm/arm-none-eabi/include/c++/10.3.1/bits/char_traits.h **** _GLIBCXX_END_NAMESPACE_VERSION
 232:/Library/DaisyToolchain/0.2.0/arm/arm-none-eabi/include/c++/10.3.1/bits/char_traits.h **** } // namespace
 233:/Library/DaisyToolchain/0.2.0/arm/arm-none-eabi/include/c++/10.3.1/bits/char_traits.h **** 
 234:/Library/DaisyToolchain/0.2.0/arm/arm-none-eabi/include/c++/10.3.1/bits/char_traits.h **** namespace std _GLIBCXX_VISIBILITY(default)
 235:/Library/DaisyToolchain/0.2.0/arm/arm-none-eabi/include/c++/10.3.1/bits/char_traits.h **** {
 236:/Library/DaisyToolchain/0.2.0/arm/arm-none-eabi/include/c++/10.3.1/bits/char_traits.h **** _GLIBCXX_BEGIN_NAMESPACE_VERSION
 237:/Library/DaisyToolchain/0.2.0/arm/arm-none-eabi/include/c++/10.3.1/bits/char_traits.h **** 
 238:/Library/DaisyToolchain/0.2.0/arm/arm-none-eabi/include/c++/10.3.1/bits/char_traits.h **** #if __cplusplus >= 201703L
 239:/Library/DaisyToolchain/0.2.0/arm/arm-none-eabi/include/c++/10.3.1/bits/char_traits.h **** 
 240:/Library/DaisyToolchain/0.2.0/arm/arm-none-eabi/include/c++/10.3.1/bits/char_traits.h **** #ifdef __cpp_lib_is_constant_evaluated
 241:/Library/DaisyToolchain/0.2.0/arm/arm-none-eabi/include/c++/10.3.1/bits/char_traits.h **** // Unofficial macro indicating P1032R1 support in C++20
 242:/Library/DaisyToolchain/0.2.0/arm/arm-none-eabi/include/c++/10.3.1/bits/char_traits.h **** # define __cpp_lib_constexpr_char_traits 201811L
 243:/Library/DaisyToolchain/0.2.0/arm/arm-none-eabi/include/c++/10.3.1/bits/char_traits.h **** #else
 244:/Library/DaisyToolchain/0.2.0/arm/arm-none-eabi/include/c++/10.3.1/bits/char_traits.h **** // Unofficial macro indicating P0426R1 support in C++17
 245:/Library/DaisyToolchain/0.2.0/arm/arm-none-eabi/include/c++/10.3.1/bits/char_traits.h **** # define __cpp_lib_constexpr_char_traits 201611L
 246:/Library/DaisyToolchain/0.2.0/arm/arm-none-eabi/include/c++/10.3.1/bits/char_traits.h **** #endif
 247:/Library/DaisyToolchain/0.2.0/arm/arm-none-eabi/include/c++/10.3.1/bits/char_traits.h **** 
 248:/Library/DaisyToolchain/0.2.0/arm/arm-none-eabi/include/c++/10.3.1/bits/char_traits.h ****   /**
 249:/Library/DaisyToolchain/0.2.0/arm/arm-none-eabi/include/c++/10.3.1/bits/char_traits.h ****    *  @brief Determine whether the characters of a NULL-terminated
 250:/Library/DaisyToolchain/0.2.0/arm/arm-none-eabi/include/c++/10.3.1/bits/char_traits.h ****    *  string are known at compile time.
 251:/Library/DaisyToolchain/0.2.0/arm/arm-none-eabi/include/c++/10.3.1/bits/char_traits.h ****    *  @param  __s  The string.
 252:/Library/DaisyToolchain/0.2.0/arm/arm-none-eabi/include/c++/10.3.1/bits/char_traits.h ****    *
ARM GAS  /var/folders/3b/wwnq8dkd3pv49d6v3x9xry0m0000gn/T//ccooLPnb.s 			page 28


 253:/Library/DaisyToolchain/0.2.0/arm/arm-none-eabi/include/c++/10.3.1/bits/char_traits.h ****    *  Assumes that _CharT is a built-in character type.
 254:/Library/DaisyToolchain/0.2.0/arm/arm-none-eabi/include/c++/10.3.1/bits/char_traits.h ****    */
 255:/Library/DaisyToolchain/0.2.0/arm/arm-none-eabi/include/c++/10.3.1/bits/char_traits.h ****   template<typename _CharT>
 256:/Library/DaisyToolchain/0.2.0/arm/arm-none-eabi/include/c++/10.3.1/bits/char_traits.h ****     _GLIBCXX_ALWAYS_INLINE constexpr bool
 257:/Library/DaisyToolchain/0.2.0/arm/arm-none-eabi/include/c++/10.3.1/bits/char_traits.h ****     __constant_string_p(const _CharT* __s)
 258:/Library/DaisyToolchain/0.2.0/arm/arm-none-eabi/include/c++/10.3.1/bits/char_traits.h ****     {
 259:/Library/DaisyToolchain/0.2.0/arm/arm-none-eabi/include/c++/10.3.1/bits/char_traits.h **** #ifdef _GLIBCXX_HAVE_BUILTIN_IS_CONSTANT_EVALUATED
 260:/Library/DaisyToolchain/0.2.0/arm/arm-none-eabi/include/c++/10.3.1/bits/char_traits.h ****       (void) __s;
 261:/Library/DaisyToolchain/0.2.0/arm/arm-none-eabi/include/c++/10.3.1/bits/char_traits.h ****       // In constexpr contexts all strings should be constant.
 262:/Library/DaisyToolchain/0.2.0/arm/arm-none-eabi/include/c++/10.3.1/bits/char_traits.h ****       return __builtin_is_constant_evaluated();
 263:/Library/DaisyToolchain/0.2.0/arm/arm-none-eabi/include/c++/10.3.1/bits/char_traits.h **** #else
 264:/Library/DaisyToolchain/0.2.0/arm/arm-none-eabi/include/c++/10.3.1/bits/char_traits.h ****       while (__builtin_constant_p(*__s) && *__s)
 265:/Library/DaisyToolchain/0.2.0/arm/arm-none-eabi/include/c++/10.3.1/bits/char_traits.h **** 	__s++;
 266:/Library/DaisyToolchain/0.2.0/arm/arm-none-eabi/include/c++/10.3.1/bits/char_traits.h ****       return __builtin_constant_p(*__s);
 267:/Library/DaisyToolchain/0.2.0/arm/arm-none-eabi/include/c++/10.3.1/bits/char_traits.h **** #endif
 268:/Library/DaisyToolchain/0.2.0/arm/arm-none-eabi/include/c++/10.3.1/bits/char_traits.h ****     }
 269:/Library/DaisyToolchain/0.2.0/arm/arm-none-eabi/include/c++/10.3.1/bits/char_traits.h **** 
 270:/Library/DaisyToolchain/0.2.0/arm/arm-none-eabi/include/c++/10.3.1/bits/char_traits.h ****   /**
 271:/Library/DaisyToolchain/0.2.0/arm/arm-none-eabi/include/c++/10.3.1/bits/char_traits.h ****    *  @brief Determine whether the characters of a character array are
 272:/Library/DaisyToolchain/0.2.0/arm/arm-none-eabi/include/c++/10.3.1/bits/char_traits.h ****    *  known at compile time.
 273:/Library/DaisyToolchain/0.2.0/arm/arm-none-eabi/include/c++/10.3.1/bits/char_traits.h ****    *  @param  __a  The character array.
 274:/Library/DaisyToolchain/0.2.0/arm/arm-none-eabi/include/c++/10.3.1/bits/char_traits.h ****    *  @param  __n  Number of characters.
 275:/Library/DaisyToolchain/0.2.0/arm/arm-none-eabi/include/c++/10.3.1/bits/char_traits.h ****    *
 276:/Library/DaisyToolchain/0.2.0/arm/arm-none-eabi/include/c++/10.3.1/bits/char_traits.h ****    *  Assumes that _CharT is a built-in character type.
 277:/Library/DaisyToolchain/0.2.0/arm/arm-none-eabi/include/c++/10.3.1/bits/char_traits.h ****    */
 278:/Library/DaisyToolchain/0.2.0/arm/arm-none-eabi/include/c++/10.3.1/bits/char_traits.h ****   template<typename _CharT>
 279:/Library/DaisyToolchain/0.2.0/arm/arm-none-eabi/include/c++/10.3.1/bits/char_traits.h ****     _GLIBCXX_ALWAYS_INLINE constexpr bool
 280:/Library/DaisyToolchain/0.2.0/arm/arm-none-eabi/include/c++/10.3.1/bits/char_traits.h ****     __constant_char_array_p(const _CharT* __a, size_t __n)
 281:/Library/DaisyToolchain/0.2.0/arm/arm-none-eabi/include/c++/10.3.1/bits/char_traits.h ****     {
 282:/Library/DaisyToolchain/0.2.0/arm/arm-none-eabi/include/c++/10.3.1/bits/char_traits.h **** #ifdef _GLIBCXX_HAVE_BUILTIN_IS_CONSTANT_EVALUATED
 283:/Library/DaisyToolchain/0.2.0/arm/arm-none-eabi/include/c++/10.3.1/bits/char_traits.h ****       (void) __a;
 284:/Library/DaisyToolchain/0.2.0/arm/arm-none-eabi/include/c++/10.3.1/bits/char_traits.h ****       (void) __n;
 285:/Library/DaisyToolchain/0.2.0/arm/arm-none-eabi/include/c++/10.3.1/bits/char_traits.h ****       // In constexpr contexts all character arrays should be constant.
 286:/Library/DaisyToolchain/0.2.0/arm/arm-none-eabi/include/c++/10.3.1/bits/char_traits.h ****       return __builtin_is_constant_evaluated();
 287:/Library/DaisyToolchain/0.2.0/arm/arm-none-eabi/include/c++/10.3.1/bits/char_traits.h **** #else
 288:/Library/DaisyToolchain/0.2.0/arm/arm-none-eabi/include/c++/10.3.1/bits/char_traits.h ****       size_t __i = 0;
 289:/Library/DaisyToolchain/0.2.0/arm/arm-none-eabi/include/c++/10.3.1/bits/char_traits.h ****       while (__i < __n && __builtin_constant_p(__a[__i]))
 290:/Library/DaisyToolchain/0.2.0/arm/arm-none-eabi/include/c++/10.3.1/bits/char_traits.h **** 	__i++;
 291:/Library/DaisyToolchain/0.2.0/arm/arm-none-eabi/include/c++/10.3.1/bits/char_traits.h ****       return __i == __n;
 292:/Library/DaisyToolchain/0.2.0/arm/arm-none-eabi/include/c++/10.3.1/bits/char_traits.h **** #endif
 293:/Library/DaisyToolchain/0.2.0/arm/arm-none-eabi/include/c++/10.3.1/bits/char_traits.h ****     }
 294:/Library/DaisyToolchain/0.2.0/arm/arm-none-eabi/include/c++/10.3.1/bits/char_traits.h **** #endif
 295:/Library/DaisyToolchain/0.2.0/arm/arm-none-eabi/include/c++/10.3.1/bits/char_traits.h **** 
 296:/Library/DaisyToolchain/0.2.0/arm/arm-none-eabi/include/c++/10.3.1/bits/char_traits.h ****   // 21.1
 297:/Library/DaisyToolchain/0.2.0/arm/arm-none-eabi/include/c++/10.3.1/bits/char_traits.h ****   /**
 298:/Library/DaisyToolchain/0.2.0/arm/arm-none-eabi/include/c++/10.3.1/bits/char_traits.h ****    *  @brief  Basis for explicit traits specializations.
 299:/Library/DaisyToolchain/0.2.0/arm/arm-none-eabi/include/c++/10.3.1/bits/char_traits.h ****    *
 300:/Library/DaisyToolchain/0.2.0/arm/arm-none-eabi/include/c++/10.3.1/bits/char_traits.h ****    *  @note  For any given actual character type, this definition is
 301:/Library/DaisyToolchain/0.2.0/arm/arm-none-eabi/include/c++/10.3.1/bits/char_traits.h ****    *  probably wrong.  Since this is just a thin wrapper around
 302:/Library/DaisyToolchain/0.2.0/arm/arm-none-eabi/include/c++/10.3.1/bits/char_traits.h ****    *  __gnu_cxx::char_traits, it is possible to achieve a more
 303:/Library/DaisyToolchain/0.2.0/arm/arm-none-eabi/include/c++/10.3.1/bits/char_traits.h ****    *  appropriate definition by specializing __gnu_cxx::char_traits.
 304:/Library/DaisyToolchain/0.2.0/arm/arm-none-eabi/include/c++/10.3.1/bits/char_traits.h ****    *
 305:/Library/DaisyToolchain/0.2.0/arm/arm-none-eabi/include/c++/10.3.1/bits/char_traits.h ****    *  See https://gcc.gnu.org/onlinedocs/libstdc++/manual/strings.html#strings.string.character_typ
 306:/Library/DaisyToolchain/0.2.0/arm/arm-none-eabi/include/c++/10.3.1/bits/char_traits.h ****    *  for advice on how to make use of this class for @a unusual character
 307:/Library/DaisyToolchain/0.2.0/arm/arm-none-eabi/include/c++/10.3.1/bits/char_traits.h ****    *  types. Also, check out include/ext/pod_char_traits.h.
 308:/Library/DaisyToolchain/0.2.0/arm/arm-none-eabi/include/c++/10.3.1/bits/char_traits.h ****   */
 309:/Library/DaisyToolchain/0.2.0/arm/arm-none-eabi/include/c++/10.3.1/bits/char_traits.h ****   template<class _CharT>
ARM GAS  /var/folders/3b/wwnq8dkd3pv49d6v3x9xry0m0000gn/T//ccooLPnb.s 			page 29


 310:/Library/DaisyToolchain/0.2.0/arm/arm-none-eabi/include/c++/10.3.1/bits/char_traits.h ****     struct char_traits : public __gnu_cxx::char_traits<_CharT>
 311:/Library/DaisyToolchain/0.2.0/arm/arm-none-eabi/include/c++/10.3.1/bits/char_traits.h ****     { };
 312:/Library/DaisyToolchain/0.2.0/arm/arm-none-eabi/include/c++/10.3.1/bits/char_traits.h **** 
 313:/Library/DaisyToolchain/0.2.0/arm/arm-none-eabi/include/c++/10.3.1/bits/char_traits.h **** 
 314:/Library/DaisyToolchain/0.2.0/arm/arm-none-eabi/include/c++/10.3.1/bits/char_traits.h ****   /// 21.1.3.1  char_traits specializations
 315:/Library/DaisyToolchain/0.2.0/arm/arm-none-eabi/include/c++/10.3.1/bits/char_traits.h ****   template<>
 316:/Library/DaisyToolchain/0.2.0/arm/arm-none-eabi/include/c++/10.3.1/bits/char_traits.h ****     struct char_traits<char>
 317:/Library/DaisyToolchain/0.2.0/arm/arm-none-eabi/include/c++/10.3.1/bits/char_traits.h ****     {
 318:/Library/DaisyToolchain/0.2.0/arm/arm-none-eabi/include/c++/10.3.1/bits/char_traits.h ****       typedef char              char_type;
 319:/Library/DaisyToolchain/0.2.0/arm/arm-none-eabi/include/c++/10.3.1/bits/char_traits.h ****       typedef int               int_type;
 320:/Library/DaisyToolchain/0.2.0/arm/arm-none-eabi/include/c++/10.3.1/bits/char_traits.h ****       typedef streampos         pos_type;
 321:/Library/DaisyToolchain/0.2.0/arm/arm-none-eabi/include/c++/10.3.1/bits/char_traits.h ****       typedef streamoff         off_type;
 322:/Library/DaisyToolchain/0.2.0/arm/arm-none-eabi/include/c++/10.3.1/bits/char_traits.h ****       typedef mbstate_t         state_type;
 323:/Library/DaisyToolchain/0.2.0/arm/arm-none-eabi/include/c++/10.3.1/bits/char_traits.h **** #if __cpp_lib_three_way_comparison
 324:/Library/DaisyToolchain/0.2.0/arm/arm-none-eabi/include/c++/10.3.1/bits/char_traits.h ****       using comparison_category = strong_ordering;
 325:/Library/DaisyToolchain/0.2.0/arm/arm-none-eabi/include/c++/10.3.1/bits/char_traits.h **** #endif
 326:/Library/DaisyToolchain/0.2.0/arm/arm-none-eabi/include/c++/10.3.1/bits/char_traits.h **** 
 327:/Library/DaisyToolchain/0.2.0/arm/arm-none-eabi/include/c++/10.3.1/bits/char_traits.h ****       static _GLIBCXX17_CONSTEXPR void
 328:/Library/DaisyToolchain/0.2.0/arm/arm-none-eabi/include/c++/10.3.1/bits/char_traits.h ****       assign(char_type& __c1, const char_type& __c2) _GLIBCXX_NOEXCEPT
 248              		.loc 6 328 7 is_stmt 1 view .LVU52
 249              	.LBB529:
 329:/Library/DaisyToolchain/0.2.0/arm/arm-none-eabi/include/c++/10.3.1/bits/char_traits.h ****       { __c1 = __c2; }
 250              		.loc 6 329 9 view .LVU53
 251              		.loc 6 329 16 is_stmt 0 view .LVU54
 252 001a 3378     		ldrb	r3, [r6]	@ zero_extendqisi2
 253              		.loc 6 329 14 view .LVU55
 254 001c 0370     		strb	r3, [r0]
 255              	.LBE529:
 256              	.LBE528:
 257              	.LBE539:
 258              	.LBE543:
 259              	.LBE548:
 260              	.LBB549:
 261              	.LBB550:
 262              	.LBB551:
 263              	.LBB552:
 264 001e 0023     		movs	r3, #0
 265              	.LBE552:
 266              	.LBE551:
 267              	.LBE550:
 268              	.LBE549:
 218:/Library/DaisyToolchain/0.2.0/arm/arm-none-eabi/include/c++/10.3.1/bits/basic_string.tcc **** 	  {
 219:/Library/DaisyToolchain/0.2.0/arm/arm-none-eabi/include/c++/10.3.1/bits/basic_string.tcc **** 	    _M_data(_M_create(__dnew, size_type(0)));
 220:/Library/DaisyToolchain/0.2.0/arm/arm-none-eabi/include/c++/10.3.1/bits/basic_string.tcc **** 	    _M_capacity(__dnew);
 221:/Library/DaisyToolchain/0.2.0/arm/arm-none-eabi/include/c++/10.3.1/bits/basic_string.tcc **** 	  }
 222:/Library/DaisyToolchain/0.2.0/arm/arm-none-eabi/include/c++/10.3.1/bits/basic_string.tcc **** 
 223:/Library/DaisyToolchain/0.2.0/arm/arm-none-eabi/include/c++/10.3.1/bits/basic_string.tcc **** 	// Check for out_of_range and length_error exceptions.
 224:/Library/DaisyToolchain/0.2.0/arm/arm-none-eabi/include/c++/10.3.1/bits/basic_string.tcc **** 	__try
 225:/Library/DaisyToolchain/0.2.0/arm/arm-none-eabi/include/c++/10.3.1/bits/basic_string.tcc **** 	  { this->_S_copy_chars(_M_data(), __beg, __end); }
 226:/Library/DaisyToolchain/0.2.0/arm/arm-none-eabi/include/c++/10.3.1/bits/basic_string.tcc **** 	__catch(...)
 227:/Library/DaisyToolchain/0.2.0/arm/arm-none-eabi/include/c++/10.3.1/bits/basic_string.tcc **** 	  {
 228:/Library/DaisyToolchain/0.2.0/arm/arm-none-eabi/include/c++/10.3.1/bits/basic_string.tcc **** 	    _M_dispose();
 229:/Library/DaisyToolchain/0.2.0/arm/arm-none-eabi/include/c++/10.3.1/bits/basic_string.tcc **** 	    __throw_exception_again;
 230:/Library/DaisyToolchain/0.2.0/arm/arm-none-eabi/include/c++/10.3.1/bits/basic_string.tcc **** 	  }
 231:/Library/DaisyToolchain/0.2.0/arm/arm-none-eabi/include/c++/10.3.1/bits/basic_string.tcc **** 
 232:/Library/DaisyToolchain/0.2.0/arm/arm-none-eabi/include/c++/10.3.1/bits/basic_string.tcc **** 	_M_set_length(__dnew);
 269              		.loc 3 232 15 view .LVU56
ARM GAS  /var/folders/3b/wwnq8dkd3pv49d6v3x9xry0m0000gn/T//ccooLPnb.s 			page 30


 270 0020 019C     		ldr	r4, [sp, #4]
 271              	.LVL15:
 272              	.LBB583:
 273              	.LBI549:
 222:/Library/DaisyToolchain/0.2.0/arm/arm-none-eabi/include/c++/10.3.1/bits/basic_string.h ****       {
 274              		.loc 5 222 7 is_stmt 1 view .LVU57
 275              	.LBB579:
 276              	.LBB558:
 277              	.LBI558:
 190:/Library/DaisyToolchain/0.2.0/arm/arm-none-eabi/include/c++/10.3.1/bits/basic_string.h ****       { _M_string_length = __length; }
 278              		.loc 5 190 7 view .LVU58
 279              	.LBE558:
 280              	.LBB562:
 281              	.LBB563:
 195:/Library/DaisyToolchain/0.2.0/arm/arm-none-eabi/include/c++/10.3.1/bits/basic_string.h **** 
 282              		.loc 5 195 28 is_stmt 0 view .LVU59
 283 0022 2868     		ldr	r0, [r5]
 284              	.LBE563:
 285              	.LBE562:
 286              	.LBB565:
 287              	.LBB559:
 191:/Library/DaisyToolchain/0.2.0/arm/arm-none-eabi/include/c++/10.3.1/bits/basic_string.h **** 
 288              		.loc 5 191 26 view .LVU60
 289 0024 6C60     		str	r4, [r5, #4]
 290              	.LVL16:
 191:/Library/DaisyToolchain/0.2.0/arm/arm-none-eabi/include/c++/10.3.1/bits/basic_string.h **** 
 291              		.loc 5 191 26 view .LVU61
 292              	.LBE559:
 293              	.LBE565:
 294              	.LBB566:
 295              	.LBI562:
 194:/Library/DaisyToolchain/0.2.0/arm/arm-none-eabi/include/c++/10.3.1/bits/basic_string.h ****       { return _M_dataplus._M_p; }
 296              		.loc 5 194 7 is_stmt 1 view .LVU62
 194:/Library/DaisyToolchain/0.2.0/arm/arm-none-eabi/include/c++/10.3.1/bits/basic_string.h ****       { return _M_dataplus._M_p; }
 297              		.loc 5 194 7 is_stmt 0 view .LVU63
 298              	.LBE566:
 299              	.LBB567:
 300              	.LBI551:
 328:/Library/DaisyToolchain/0.2.0/arm/arm-none-eabi/include/c++/10.3.1/bits/char_traits.h ****       { __c1 = __c2; }
 301              		.loc 6 328 7 is_stmt 1 view .LVU64
 302              	.LBB553:
 303              		.loc 6 329 9 view .LVU65
 304              		.loc 6 329 14 is_stmt 0 view .LVU66
 305 0026 0355     		strb	r3, [r0, r4]
 306              	.LVL17:
 307              		.loc 6 329 14 view .LVU67
 308              	.LBE553:
 309              	.LBE567:
 310              	.LBE579:
 311              	.LBE583:
 233:/Library/DaisyToolchain/0.2.0/arm/arm-none-eabi/include/c++/10.3.1/bits/basic_string.tcc ****       }
 312              		.loc 3 233 7 view .LVU68
 313 0028 02B0     		add	sp, sp, #8
 314              		.cfi_remember_state
 315              		.cfi_def_cfa_offset 16
 316              		@ sp needed
 317 002a 70BD     		pop	{r4, r5, r6, pc}
ARM GAS  /var/folders/3b/wwnq8dkd3pv49d6v3x9xry0m0000gn/T//ccooLPnb.s 			page 31


 318              	.LVL18:
 319              	.L33:
 320              		.cfi_restore_state
 321              	.LBB584:
 322              	.LBB544:
 323              	.LBB540:
 324              	.LBB530:
 325              	.LBI530:
 354:/Library/DaisyToolchain/0.2.0/arm/arm-none-eabi/include/c++/10.3.1/bits/basic_string.h ****       {
 326              		.loc 5 354 7 is_stmt 1 view .LVU69
 327              	.LBB531:
 328              	.LBI531:
 330:/Library/DaisyToolchain/0.2.0/arm/arm-none-eabi/include/c++/10.3.1/bits/char_traits.h **** 
 331:/Library/DaisyToolchain/0.2.0/arm/arm-none-eabi/include/c++/10.3.1/bits/char_traits.h ****       static _GLIBCXX_CONSTEXPR bool
 332:/Library/DaisyToolchain/0.2.0/arm/arm-none-eabi/include/c++/10.3.1/bits/char_traits.h ****       eq(const char_type& __c1, const char_type& __c2) _GLIBCXX_NOEXCEPT
 333:/Library/DaisyToolchain/0.2.0/arm/arm-none-eabi/include/c++/10.3.1/bits/char_traits.h ****       { return __c1 == __c2; }
 334:/Library/DaisyToolchain/0.2.0/arm/arm-none-eabi/include/c++/10.3.1/bits/char_traits.h **** 
 335:/Library/DaisyToolchain/0.2.0/arm/arm-none-eabi/include/c++/10.3.1/bits/char_traits.h ****       static _GLIBCXX_CONSTEXPR bool
 336:/Library/DaisyToolchain/0.2.0/arm/arm-none-eabi/include/c++/10.3.1/bits/char_traits.h ****       lt(const char_type& __c1, const char_type& __c2) _GLIBCXX_NOEXCEPT
 337:/Library/DaisyToolchain/0.2.0/arm/arm-none-eabi/include/c++/10.3.1/bits/char_traits.h ****       {
 338:/Library/DaisyToolchain/0.2.0/arm/arm-none-eabi/include/c++/10.3.1/bits/char_traits.h **** 	// LWG 467.
 339:/Library/DaisyToolchain/0.2.0/arm/arm-none-eabi/include/c++/10.3.1/bits/char_traits.h **** 	return (static_cast<unsigned char>(__c1)
 340:/Library/DaisyToolchain/0.2.0/arm/arm-none-eabi/include/c++/10.3.1/bits/char_traits.h **** 		< static_cast<unsigned char>(__c2));
 341:/Library/DaisyToolchain/0.2.0/arm/arm-none-eabi/include/c++/10.3.1/bits/char_traits.h ****       }
 342:/Library/DaisyToolchain/0.2.0/arm/arm-none-eabi/include/c++/10.3.1/bits/char_traits.h **** 
 343:/Library/DaisyToolchain/0.2.0/arm/arm-none-eabi/include/c++/10.3.1/bits/char_traits.h ****       static _GLIBCXX17_CONSTEXPR int
 344:/Library/DaisyToolchain/0.2.0/arm/arm-none-eabi/include/c++/10.3.1/bits/char_traits.h ****       compare(const char_type* __s1, const char_type* __s2, size_t __n)
 345:/Library/DaisyToolchain/0.2.0/arm/arm-none-eabi/include/c++/10.3.1/bits/char_traits.h ****       {
 346:/Library/DaisyToolchain/0.2.0/arm/arm-none-eabi/include/c++/10.3.1/bits/char_traits.h **** 	if (__n == 0)
 347:/Library/DaisyToolchain/0.2.0/arm/arm-none-eabi/include/c++/10.3.1/bits/char_traits.h **** 	  return 0;
 348:/Library/DaisyToolchain/0.2.0/arm/arm-none-eabi/include/c++/10.3.1/bits/char_traits.h **** #if __cplusplus >= 201703L
 349:/Library/DaisyToolchain/0.2.0/arm/arm-none-eabi/include/c++/10.3.1/bits/char_traits.h **** 	if (__builtin_constant_p(__n)
 350:/Library/DaisyToolchain/0.2.0/arm/arm-none-eabi/include/c++/10.3.1/bits/char_traits.h **** 	    && __constant_char_array_p(__s1, __n)
 351:/Library/DaisyToolchain/0.2.0/arm/arm-none-eabi/include/c++/10.3.1/bits/char_traits.h **** 	    && __constant_char_array_p(__s2, __n))
 352:/Library/DaisyToolchain/0.2.0/arm/arm-none-eabi/include/c++/10.3.1/bits/char_traits.h **** 	  {
 353:/Library/DaisyToolchain/0.2.0/arm/arm-none-eabi/include/c++/10.3.1/bits/char_traits.h **** 	    for (size_t __i = 0; __i < __n; ++__i)
 354:/Library/DaisyToolchain/0.2.0/arm/arm-none-eabi/include/c++/10.3.1/bits/char_traits.h **** 	      if (lt(__s1[__i], __s2[__i]))
 355:/Library/DaisyToolchain/0.2.0/arm/arm-none-eabi/include/c++/10.3.1/bits/char_traits.h **** 		return -1;
 356:/Library/DaisyToolchain/0.2.0/arm/arm-none-eabi/include/c++/10.3.1/bits/char_traits.h **** 	      else if (lt(__s2[__i], __s1[__i]))
 357:/Library/DaisyToolchain/0.2.0/arm/arm-none-eabi/include/c++/10.3.1/bits/char_traits.h **** 		return 1;
 358:/Library/DaisyToolchain/0.2.0/arm/arm-none-eabi/include/c++/10.3.1/bits/char_traits.h **** 	    return 0;
 359:/Library/DaisyToolchain/0.2.0/arm/arm-none-eabi/include/c++/10.3.1/bits/char_traits.h **** 	  }
 360:/Library/DaisyToolchain/0.2.0/arm/arm-none-eabi/include/c++/10.3.1/bits/char_traits.h **** #endif
 361:/Library/DaisyToolchain/0.2.0/arm/arm-none-eabi/include/c++/10.3.1/bits/char_traits.h **** 	return __builtin_memcmp(__s1, __s2, __n);
 362:/Library/DaisyToolchain/0.2.0/arm/arm-none-eabi/include/c++/10.3.1/bits/char_traits.h ****       }
 363:/Library/DaisyToolchain/0.2.0/arm/arm-none-eabi/include/c++/10.3.1/bits/char_traits.h **** 
 364:/Library/DaisyToolchain/0.2.0/arm/arm-none-eabi/include/c++/10.3.1/bits/char_traits.h ****       static _GLIBCXX17_CONSTEXPR size_t
 365:/Library/DaisyToolchain/0.2.0/arm/arm-none-eabi/include/c++/10.3.1/bits/char_traits.h ****       length(const char_type* __s)
 366:/Library/DaisyToolchain/0.2.0/arm/arm-none-eabi/include/c++/10.3.1/bits/char_traits.h ****       {
 367:/Library/DaisyToolchain/0.2.0/arm/arm-none-eabi/include/c++/10.3.1/bits/char_traits.h **** #if __cplusplus >= 201703L
 368:/Library/DaisyToolchain/0.2.0/arm/arm-none-eabi/include/c++/10.3.1/bits/char_traits.h **** 	if (__constant_string_p(__s))
 369:/Library/DaisyToolchain/0.2.0/arm/arm-none-eabi/include/c++/10.3.1/bits/char_traits.h **** 	  return __gnu_cxx::char_traits<char_type>::length(__s);
 370:/Library/DaisyToolchain/0.2.0/arm/arm-none-eabi/include/c++/10.3.1/bits/char_traits.h **** #endif
 371:/Library/DaisyToolchain/0.2.0/arm/arm-none-eabi/include/c++/10.3.1/bits/char_traits.h **** 	return __builtin_strlen(__s);
 372:/Library/DaisyToolchain/0.2.0/arm/arm-none-eabi/include/c++/10.3.1/bits/char_traits.h ****       }
 373:/Library/DaisyToolchain/0.2.0/arm/arm-none-eabi/include/c++/10.3.1/bits/char_traits.h **** 
 374:/Library/DaisyToolchain/0.2.0/arm/arm-none-eabi/include/c++/10.3.1/bits/char_traits.h ****       static _GLIBCXX17_CONSTEXPR const char_type*
ARM GAS  /var/folders/3b/wwnq8dkd3pv49d6v3x9xry0m0000gn/T//ccooLPnb.s 			page 32


 375:/Library/DaisyToolchain/0.2.0/arm/arm-none-eabi/include/c++/10.3.1/bits/char_traits.h ****       find(const char_type* __s, size_t __n, const char_type& __a)
 376:/Library/DaisyToolchain/0.2.0/arm/arm-none-eabi/include/c++/10.3.1/bits/char_traits.h ****       {
 377:/Library/DaisyToolchain/0.2.0/arm/arm-none-eabi/include/c++/10.3.1/bits/char_traits.h **** 	if (__n == 0)
 378:/Library/DaisyToolchain/0.2.0/arm/arm-none-eabi/include/c++/10.3.1/bits/char_traits.h **** 	  return 0;
 379:/Library/DaisyToolchain/0.2.0/arm/arm-none-eabi/include/c++/10.3.1/bits/char_traits.h **** #if __cplusplus >= 201703L
 380:/Library/DaisyToolchain/0.2.0/arm/arm-none-eabi/include/c++/10.3.1/bits/char_traits.h **** 	if (__builtin_constant_p(__n)
 381:/Library/DaisyToolchain/0.2.0/arm/arm-none-eabi/include/c++/10.3.1/bits/char_traits.h **** 	    && __builtin_constant_p(__a)
 382:/Library/DaisyToolchain/0.2.0/arm/arm-none-eabi/include/c++/10.3.1/bits/char_traits.h **** 	    && __constant_char_array_p(__s, __n))
 383:/Library/DaisyToolchain/0.2.0/arm/arm-none-eabi/include/c++/10.3.1/bits/char_traits.h **** 	  return __gnu_cxx::char_traits<char_type>::find(__s, __n, __a);
 384:/Library/DaisyToolchain/0.2.0/arm/arm-none-eabi/include/c++/10.3.1/bits/char_traits.h **** #endif
 385:/Library/DaisyToolchain/0.2.0/arm/arm-none-eabi/include/c++/10.3.1/bits/char_traits.h **** 	return static_cast<const char_type*>(__builtin_memchr(__s, __a, __n));
 386:/Library/DaisyToolchain/0.2.0/arm/arm-none-eabi/include/c++/10.3.1/bits/char_traits.h ****       }
 387:/Library/DaisyToolchain/0.2.0/arm/arm-none-eabi/include/c++/10.3.1/bits/char_traits.h **** 
 388:/Library/DaisyToolchain/0.2.0/arm/arm-none-eabi/include/c++/10.3.1/bits/char_traits.h ****       static _GLIBCXX20_CONSTEXPR char_type*
 389:/Library/DaisyToolchain/0.2.0/arm/arm-none-eabi/include/c++/10.3.1/bits/char_traits.h ****       move(char_type* __s1, const char_type* __s2, size_t __n)
 390:/Library/DaisyToolchain/0.2.0/arm/arm-none-eabi/include/c++/10.3.1/bits/char_traits.h ****       {
 391:/Library/DaisyToolchain/0.2.0/arm/arm-none-eabi/include/c++/10.3.1/bits/char_traits.h **** 	if (__n == 0)
 392:/Library/DaisyToolchain/0.2.0/arm/arm-none-eabi/include/c++/10.3.1/bits/char_traits.h **** 	  return __s1;
 393:/Library/DaisyToolchain/0.2.0/arm/arm-none-eabi/include/c++/10.3.1/bits/char_traits.h **** #ifdef __cpp_lib_is_constant_evaluated
 394:/Library/DaisyToolchain/0.2.0/arm/arm-none-eabi/include/c++/10.3.1/bits/char_traits.h **** 	if (std::is_constant_evaluated())
 395:/Library/DaisyToolchain/0.2.0/arm/arm-none-eabi/include/c++/10.3.1/bits/char_traits.h **** 	  return __gnu_cxx::char_traits<char_type>::move(__s1, __s2, __n);
 396:/Library/DaisyToolchain/0.2.0/arm/arm-none-eabi/include/c++/10.3.1/bits/char_traits.h **** #endif
 397:/Library/DaisyToolchain/0.2.0/arm/arm-none-eabi/include/c++/10.3.1/bits/char_traits.h **** 	return static_cast<char_type*>(__builtin_memmove(__s1, __s2, __n));
 398:/Library/DaisyToolchain/0.2.0/arm/arm-none-eabi/include/c++/10.3.1/bits/char_traits.h ****       }
 399:/Library/DaisyToolchain/0.2.0/arm/arm-none-eabi/include/c++/10.3.1/bits/char_traits.h **** 
 400:/Library/DaisyToolchain/0.2.0/arm/arm-none-eabi/include/c++/10.3.1/bits/char_traits.h ****       static _GLIBCXX20_CONSTEXPR char_type*
 401:/Library/DaisyToolchain/0.2.0/arm/arm-none-eabi/include/c++/10.3.1/bits/char_traits.h ****       copy(char_type* __s1, const char_type* __s2, size_t __n)
 329              		.loc 6 401 7 view .LVU70
 330              	.LBB532:
 402:/Library/DaisyToolchain/0.2.0/arm/arm-none-eabi/include/c++/10.3.1/bits/char_traits.h ****       {
 403:/Library/DaisyToolchain/0.2.0/arm/arm-none-eabi/include/c++/10.3.1/bits/char_traits.h **** 	if (__n == 0)
 331              		.loc 6 403 2 view .LVU71
 332 002c 64B9     		cbnz	r4, .L32
 333              	.LVL19:
 334              		.loc 6 403 2 is_stmt 0 view .LVU72
 335              	.LBE532:
 336              	.LBE531:
 337              	.LBE530:
 338              	.LBE540:
 339              	.LBE544:
 340              	.LBE584:
 341              	.LBB585:
 222:/Library/DaisyToolchain/0.2.0/arm/arm-none-eabi/include/c++/10.3.1/bits/basic_string.h ****       {
 342              		.loc 5 222 7 is_stmt 1 view .LVU73
 343              	.LBB580:
 344              	.LBB568:
 190:/Library/DaisyToolchain/0.2.0/arm/arm-none-eabi/include/c++/10.3.1/bits/basic_string.h ****       { _M_string_length = __length; }
 345              		.loc 5 190 7 view .LVU74
 346              	.LBE568:
 347              	.LBB569:
 348              	.LBB554:
 329:/Library/DaisyToolchain/0.2.0/arm/arm-none-eabi/include/c++/10.3.1/bits/char_traits.h **** 
 349              		.loc 6 329 14 is_stmt 0 view .LVU75
 350 002e 0023     		movs	r3, #0
 351              	.LBE554:
 352              	.LBE569:
 353              	.LBB570:
ARM GAS  /var/folders/3b/wwnq8dkd3pv49d6v3x9xry0m0000gn/T//ccooLPnb.s 			page 33


 354              	.LBB560:
 191:/Library/DaisyToolchain/0.2.0/arm/arm-none-eabi/include/c++/10.3.1/bits/basic_string.h **** 
 355              		.loc 5 191 26 view .LVU76
 356 0030 6C60     		str	r4, [r5, #4]
 357              	.LVL20:
 191:/Library/DaisyToolchain/0.2.0/arm/arm-none-eabi/include/c++/10.3.1/bits/basic_string.h **** 
 358              		.loc 5 191 26 view .LVU77
 359              	.LBE560:
 360              	.LBE570:
 361              	.LBB571:
 194:/Library/DaisyToolchain/0.2.0/arm/arm-none-eabi/include/c++/10.3.1/bits/basic_string.h ****       { return _M_dataplus._M_p; }
 362              		.loc 5 194 7 is_stmt 1 view .LVU78
 194:/Library/DaisyToolchain/0.2.0/arm/arm-none-eabi/include/c++/10.3.1/bits/basic_string.h ****       { return _M_dataplus._M_p; }
 363              		.loc 5 194 7 is_stmt 0 view .LVU79
 364              	.LBE571:
 365              	.LBB572:
 328:/Library/DaisyToolchain/0.2.0/arm/arm-none-eabi/include/c++/10.3.1/bits/char_traits.h ****       { __c1 = __c2; }
 366              		.loc 6 328 7 is_stmt 1 view .LVU80
 367              	.LBB555:
 329:/Library/DaisyToolchain/0.2.0/arm/arm-none-eabi/include/c++/10.3.1/bits/char_traits.h **** 
 368              		.loc 6 329 9 view .LVU81
 329:/Library/DaisyToolchain/0.2.0/arm/arm-none-eabi/include/c++/10.3.1/bits/char_traits.h **** 
 369              		.loc 6 329 14 is_stmt 0 view .LVU82
 370 0032 0355     		strb	r3, [r0, r4]
 371              	.LVL21:
 329:/Library/DaisyToolchain/0.2.0/arm/arm-none-eabi/include/c++/10.3.1/bits/char_traits.h **** 
 372              		.loc 6 329 14 view .LVU83
 373              	.LBE555:
 374              	.LBE572:
 375              	.LBE580:
 376              	.LBE585:
 377              		.loc 3 233 7 view .LVU84
 378 0034 02B0     		add	sp, sp, #8
 379              		.cfi_remember_state
 380              		.cfi_def_cfa_offset 16
 381              		@ sp needed
 382 0036 70BD     		pop	{r4, r5, r6, pc}
 383              	.LVL22:
 384              	.L47:
 385              		.cfi_restore_state
 219:/Library/DaisyToolchain/0.2.0/arm/arm-none-eabi/include/c++/10.3.1/bits/basic_string.tcc **** 	    _M_capacity(__dnew);
 386              		.loc 3 219 13 view .LVU85
 387 0038 0022     		movs	r2, #0
 388              	.LVL23:
 219:/Library/DaisyToolchain/0.2.0/arm/arm-none-eabi/include/c++/10.3.1/bits/basic_string.tcc **** 	    _M_capacity(__dnew);
 389              		.loc 3 219 13 view .LVU86
 390 003a 01A9     		add	r1, sp, #4
 391              	.LVL24:
 219:/Library/DaisyToolchain/0.2.0/arm/arm-none-eabi/include/c++/10.3.1/bits/basic_string.tcc **** 	    _M_capacity(__dnew);
 392              		.loc 3 219 13 view .LVU87
 393 003c 2846     		mov	r0, r5
 394              	.LVL25:
 219:/Library/DaisyToolchain/0.2.0/arm/arm-none-eabi/include/c++/10.3.1/bits/basic_string.tcc **** 	    _M_capacity(__dnew);
 395              		.loc 3 219 13 view .LVU88
 396 003e FFF7FEFF 		bl	_ZNSt7__cxx1112basic_stringIcSt11char_traitsIcESaIcEE9_M_createERjj
 397              	.LVL26:
 398              	.LBB586:
ARM GAS  /var/folders/3b/wwnq8dkd3pv49d6v3x9xry0m0000gn/T//ccooLPnb.s 			page 34


 399              	.LBB587:
 219:/Library/DaisyToolchain/0.2.0/arm/arm-none-eabi/include/c++/10.3.1/bits/basic_string.h **** 
 400              		.loc 5 219 31 view .LVU89
 401 0042 019B     		ldr	r3, [sp, #4]
 402              	.LVL27:
 219:/Library/DaisyToolchain/0.2.0/arm/arm-none-eabi/include/c++/10.3.1/bits/basic_string.h **** 
 403              		.loc 5 219 31 view .LVU90
 404              	.LBE587:
 405              	.LBE586:
 406              	.LBB589:
 407              	.LBI589:
 186:/Library/DaisyToolchain/0.2.0/arm/arm-none-eabi/include/c++/10.3.1/bits/basic_string.h ****       { _M_dataplus._M_p = __p; }
 408              		.loc 5 186 7 is_stmt 1 view .LVU91
 409              	.LBB590:
 187:/Library/DaisyToolchain/0.2.0/arm/arm-none-eabi/include/c++/10.3.1/bits/basic_string.h **** 
 410              		.loc 5 187 26 is_stmt 0 view .LVU92
 411 0044 2860     		str	r0, [r5]
 412              	.LVL28:
 187:/Library/DaisyToolchain/0.2.0/arm/arm-none-eabi/include/c++/10.3.1/bits/basic_string.h **** 
 413              		.loc 5 187 26 view .LVU93
 414              	.LBE590:
 415              	.LBE589:
 416              	.LBB591:
 417              	.LBI586:
 218:/Library/DaisyToolchain/0.2.0/arm/arm-none-eabi/include/c++/10.3.1/bits/basic_string.h ****       { _M_allocated_capacity = __capacity; }
 418              		.loc 5 218 7 is_stmt 1 view .LVU94
 218:/Library/DaisyToolchain/0.2.0/arm/arm-none-eabi/include/c++/10.3.1/bits/basic_string.h ****       { _M_allocated_capacity = __capacity; }
 419              		.loc 5 218 7 is_stmt 0 view .LVU95
 420              	.LBE591:
 421              	.LBB592:
 194:/Library/DaisyToolchain/0.2.0/arm/arm-none-eabi/include/c++/10.3.1/bits/basic_string.h ****       { return _M_dataplus._M_p; }
 422              		.loc 5 194 7 is_stmt 1 view .LVU96
 194:/Library/DaisyToolchain/0.2.0/arm/arm-none-eabi/include/c++/10.3.1/bits/basic_string.h ****       { return _M_dataplus._M_p; }
 423              		.loc 5 194 7 is_stmt 0 view .LVU97
 424              	.LBE592:
 425              	.LBB593:
 426              		.loc 5 400 7 is_stmt 1 view .LVU98
 427              	.LBB545:
 354:/Library/DaisyToolchain/0.2.0/arm/arm-none-eabi/include/c++/10.3.1/bits/basic_string.h ****       {
 428              		.loc 5 354 7 view .LVU99
 429              	.LBB541:
 430              	.LBB537:
 354:/Library/DaisyToolchain/0.2.0/arm/arm-none-eabi/include/c++/10.3.1/bits/basic_string.h ****       {
 431              		.loc 5 354 7 view .LVU100
 432              	.LBB535:
 401:/Library/DaisyToolchain/0.2.0/arm/arm-none-eabi/include/c++/10.3.1/bits/char_traits.h ****       {
 433              		.loc 6 401 7 view .LVU101
 434              	.LBB533:
 435              		.loc 6 403 2 view .LVU102
 436              	.LBE533:
 437              	.LBE535:
 438              	.LBE537:
 439              	.LBE541:
 440              	.LBE545:
 441              	.LBE593:
 442              	.LBB594:
 443              	.LBB588:
ARM GAS  /var/folders/3b/wwnq8dkd3pv49d6v3x9xry0m0000gn/T//ccooLPnb.s 			page 35


 219:/Library/DaisyToolchain/0.2.0/arm/arm-none-eabi/include/c++/10.3.1/bits/basic_string.h **** 
 444              		.loc 5 219 31 is_stmt 0 view .LVU103
 445 0046 AB60     		str	r3, [r5, #8]
 446              	.L32:
 219:/Library/DaisyToolchain/0.2.0/arm/arm-none-eabi/include/c++/10.3.1/bits/basic_string.h **** 
 447              		.loc 5 219 31 view .LVU104
 448              	.LBE588:
 449              	.LBE594:
 450              	.LBB595:
 451              	.LBB546:
 452              	.LBB542:
 453              	.LBB538:
 454              	.LBB536:
 455              	.LBB534:
 404:/Library/DaisyToolchain/0.2.0/arm/arm-none-eabi/include/c++/10.3.1/bits/char_traits.h **** 	  return __s1;
 405:/Library/DaisyToolchain/0.2.0/arm/arm-none-eabi/include/c++/10.3.1/bits/char_traits.h **** #ifdef __cpp_lib_is_constant_evaluated
 406:/Library/DaisyToolchain/0.2.0/arm/arm-none-eabi/include/c++/10.3.1/bits/char_traits.h **** 	if (std::is_constant_evaluated())
 407:/Library/DaisyToolchain/0.2.0/arm/arm-none-eabi/include/c++/10.3.1/bits/char_traits.h **** 	  return __gnu_cxx::char_traits<char_type>::copy(__s1, __s2, __n);
 408:/Library/DaisyToolchain/0.2.0/arm/arm-none-eabi/include/c++/10.3.1/bits/char_traits.h **** #endif
 409:/Library/DaisyToolchain/0.2.0/arm/arm-none-eabi/include/c++/10.3.1/bits/char_traits.h **** 	return static_cast<char_type*>(__builtin_memcpy(__s1, __s2, __n));
 456              		.loc 6 409 2 is_stmt 1 view .LVU105
 457              		.loc 6 409 49 is_stmt 0 view .LVU106
 458 0048 2246     		mov	r2, r4
 459 004a 3146     		mov	r1, r6
 460 004c FFF7FEFF 		bl	memcpy
 461              	.LVL29:
 462              		.loc 6 409 49 view .LVU107
 463              	.LBE534:
 464              	.LBE536:
 465              	.LBE538:
 466              	.LBE542:
 467              	.LBE546:
 468              	.LBE595:
 232:/Library/DaisyToolchain/0.2.0/arm/arm-none-eabi/include/c++/10.3.1/bits/basic_string.tcc ****       }
 469              		.loc 3 232 15 view .LVU108
 470 0050 019C     		ldr	r4, [sp, #4]
 471              	.LVL30:
 472              	.LBB596:
 473              	.LBB581:
 474              	.LBB573:
 475              	.LBB564:
 195:/Library/DaisyToolchain/0.2.0/arm/arm-none-eabi/include/c++/10.3.1/bits/basic_string.h **** 
 476              		.loc 5 195 28 view .LVU109
 477 0052 2868     		ldr	r0, [r5]
 478              	.LVL31:
 195:/Library/DaisyToolchain/0.2.0/arm/arm-none-eabi/include/c++/10.3.1/bits/basic_string.h **** 
 479              		.loc 5 195 28 view .LVU110
 480              	.LBE564:
 481              	.LBE573:
 482              	.LBE581:
 222:/Library/DaisyToolchain/0.2.0/arm/arm-none-eabi/include/c++/10.3.1/bits/basic_string.h ****       {
 483              		.loc 5 222 7 is_stmt 1 view .LVU111
 484              	.LBB582:
 485              	.LBB574:
 190:/Library/DaisyToolchain/0.2.0/arm/arm-none-eabi/include/c++/10.3.1/bits/basic_string.h ****       { _M_string_length = __length; }
 486              		.loc 5 190 7 view .LVU112
 487              	.LBE574:
ARM GAS  /var/folders/3b/wwnq8dkd3pv49d6v3x9xry0m0000gn/T//ccooLPnb.s 			page 36


 488              	.LBB575:
 489              	.LBB556:
 329:/Library/DaisyToolchain/0.2.0/arm/arm-none-eabi/include/c++/10.3.1/bits/char_traits.h **** 
 490              		.loc 6 329 14 is_stmt 0 view .LVU113
 491 0054 0023     		movs	r3, #0
 492              	.LBE556:
 493              	.LBE575:
 494              	.LBB576:
 495              	.LBB561:
 191:/Library/DaisyToolchain/0.2.0/arm/arm-none-eabi/include/c++/10.3.1/bits/basic_string.h **** 
 496              		.loc 5 191 26 view .LVU114
 497 0056 6C60     		str	r4, [r5, #4]
 498              	.LVL32:
 191:/Library/DaisyToolchain/0.2.0/arm/arm-none-eabi/include/c++/10.3.1/bits/basic_string.h **** 
 499              		.loc 5 191 26 view .LVU115
 500              	.LBE561:
 501              	.LBE576:
 502              	.LBB577:
 194:/Library/DaisyToolchain/0.2.0/arm/arm-none-eabi/include/c++/10.3.1/bits/basic_string.h ****       { return _M_dataplus._M_p; }
 503              		.loc 5 194 7 is_stmt 1 view .LVU116
 194:/Library/DaisyToolchain/0.2.0/arm/arm-none-eabi/include/c++/10.3.1/bits/basic_string.h ****       { return _M_dataplus._M_p; }
 504              		.loc 5 194 7 is_stmt 0 view .LVU117
 505              	.LBE577:
 506              	.LBB578:
 328:/Library/DaisyToolchain/0.2.0/arm/arm-none-eabi/include/c++/10.3.1/bits/char_traits.h ****       { __c1 = __c2; }
 507              		.loc 6 328 7 is_stmt 1 view .LVU118
 508              	.LBB557:
 329:/Library/DaisyToolchain/0.2.0/arm/arm-none-eabi/include/c++/10.3.1/bits/char_traits.h **** 
 509              		.loc 6 329 9 view .LVU119
 329:/Library/DaisyToolchain/0.2.0/arm/arm-none-eabi/include/c++/10.3.1/bits/char_traits.h **** 
 510              		.loc 6 329 14 is_stmt 0 view .LVU120
 511 0058 0355     		strb	r3, [r0, r4]
 512              	.LVL33:
 329:/Library/DaisyToolchain/0.2.0/arm/arm-none-eabi/include/c++/10.3.1/bits/char_traits.h **** 
 513              		.loc 6 329 14 view .LVU121
 514              	.LBE557:
 515              	.LBE578:
 516              	.LBE582:
 517              	.LBE596:
 518              		.loc 3 233 7 view .LVU122
 519 005a 02B0     		add	sp, sp, #8
 520              		.cfi_remember_state
 521              		.cfi_def_cfa_offset 16
 522              		@ sp needed
 523 005c 70BD     		pop	{r4, r5, r6, pc}
 524              	.LVL34:
 525              	.L46:
 526              		.cfi_restore_state
 212:/Library/DaisyToolchain/0.2.0/arm/arm-none-eabi/include/c++/10.3.1/bits/basic_string.tcc **** 				       "_M_construct null not valid"));
 527              		.loc 3 212 28 view .LVU123
 528 005e 0148     		ldr	r0, .L48
 529              	.LVL35:
 212:/Library/DaisyToolchain/0.2.0/arm/arm-none-eabi/include/c++/10.3.1/bits/basic_string.tcc **** 				       "_M_construct null not valid"));
 530              		.loc 3 212 28 view .LVU124
 531 0060 FFF7FEFF 		bl	_ZSt19__throw_logic_errorPKc
 532              	.LVL36:
 533              	.L49:
ARM GAS  /var/folders/3b/wwnq8dkd3pv49d6v3x9xry0m0000gn/T//ccooLPnb.s 			page 37


 212:/Library/DaisyToolchain/0.2.0/arm/arm-none-eabi/include/c++/10.3.1/bits/basic_string.tcc **** 				       "_M_construct null not valid"));
 534              		.loc 3 212 28 view .LVU125
 535              		.align	2
 536              	.L48:
 537 0064 00000000 		.word	.LC0
 538              		.cfi_endproc
 539              	.LFE3701:
 541              		.section	.text._ZN13SerialLibraryC2ERN5daisy9DaisySeedE,"ax",%progbits
 542              		.align	1
 543              		.p2align 2,,3
 544              		.global	_ZN13SerialLibraryC2ERN5daisy9DaisySeedE
 545              		.syntax unified
 546              		.thumb
 547              		.thumb_func
 549              	_ZN13SerialLibraryC2ERN5daisy9DaisySeedE:
 550              	.LVL37:
 551              	.LFB3173:
   6:library/serial_library.cpp **** SerialLibrary::SerialLibrary(DaisySeed& hw) : hw_(hw), command_buffer_("") {
 552              		.loc 1 6 1 is_stmt 1 view -0
 553              		.cfi_startproc
 554              		@ args = 0, pretend = 0, frame = 0
 555              		@ frame_needed = 0, uses_anonymous_args = 0
 556              		@ link register save eliminated.
   6:library/serial_library.cpp **** SerialLibrary::SerialLibrary(DaisySeed& hw) : hw_(hw), command_buffer_("") {
 557              		.loc 1 6 1 is_stmt 0 view .LVU127
 558 0000 30B4     		push	{r4, r5}
 559              		.cfi_def_cfa_offset 8
 560              		.cfi_offset 4, -8
 561              		.cfi_offset 5, -4
 562              	.LBB651:
   6:library/serial_library.cpp **** SerialLibrary::SerialLibrary(DaisySeed& hw) : hw_(hw), command_buffer_("") {
 563              		.loc 1 6 74 view .LVU128
 564 0002 0446     		mov	r4, r0
 565              	.LBB652:
 566              	.LBB653:
 567              	.LBB654:
 568              	.LBB655:
  15:./libDaisy//src/util/FIFO.h ****     {
 569              		.loc 2 15 75 view .LVU129
 570 0004 0022     		movs	r2, #0
 571 0006 40F20145 		movw	r5, #1025
 572              	.LBE655:
 573              	.LBE654:
 574              	.LBE653:
 575              	.LBE652:
   6:library/serial_library.cpp **** SerialLibrary::SerialLibrary(DaisySeed& hw) : hw_(hw), command_buffer_("") {
 576              		.loc 1 6 74 view .LVU130
 577 000a 44F8141B 		str	r1, [r4], #20
 578              	.LVL38:
 579              	.LBB667:
 580              	.LBI652:
 176:./libDaisy//src/util/FIFO.h ****         return size_t(numElements);
 177:./libDaisy//src/util/FIFO.h ****     }
 178:./libDaisy//src/util/FIFO.h **** 
 179:./libDaisy//src/util/FIFO.h ****     /** inserts an element "idx" positions behind the first element and returns true if successful 
 180:./libDaisy//src/util/FIFO.h ****     bool Insert(size_t idx, const T& element)
 181:./libDaisy//src/util/FIFO.h ****     {
ARM GAS  /var/folders/3b/wwnq8dkd3pv49d6v3x9xry0m0000gn/T//ccooLPnb.s 			page 38


 182:./libDaisy//src/util/FIFO.h ****         if(idx > GetNumElements())
 183:./libDaisy//src/util/FIFO.h ****             return false;
 184:./libDaisy//src/util/FIFO.h ****         if(IsFull())
 185:./libDaisy//src/util/FIFO.h ****             return false;
 186:./libDaisy//src/util/FIFO.h ****         if(idx == GetNumElements())
 187:./libDaisy//src/util/FIFO.h ****         {
 188:./libDaisy//src/util/FIFO.h ****             PushBack(element);
 189:./libDaisy//src/util/FIFO.h ****             return true;
 190:./libDaisy//src/util/FIFO.h ****         }
 191:./libDaisy//src/util/FIFO.h ****         // copy last element
 192:./libDaisy//src/util/FIFO.h ****         PushBack(Back());
 193:./libDaisy//src/util/FIFO.h ****         // move remaining elements: n => n+1
 194:./libDaisy//src/util/FIFO.h ****         for(int i = GetNumElements() - 2; i > int(idx); i--)
 195:./libDaisy//src/util/FIFO.h ****             (*this)[i] = (*this)[i - 1];
 196:./libDaisy//src/util/FIFO.h ****         // insert element
 197:./libDaisy//src/util/FIFO.h ****         (*this)[idx] = element;
 198:./libDaisy//src/util/FIFO.h ****         return true;
 199:./libDaisy//src/util/FIFO.h ****     }
 200:./libDaisy//src/util/FIFO.h **** 
 201:./libDaisy//src/util/FIFO.h ****     /** removes the element "idx" positions behind the first element 
 202:./libDaisy//src/util/FIFO.h ****      *  and returns true if successful */
 203:./libDaisy//src/util/FIFO.h ****     bool Remove(size_t idx)
 204:./libDaisy//src/util/FIFO.h ****     {
 205:./libDaisy//src/util/FIFO.h ****         if(idx >= GetNumElements())
 206:./libDaisy//src/util/FIFO.h ****             return false;
 207:./libDaisy//src/util/FIFO.h **** 
 208:./libDaisy//src/util/FIFO.h ****         size_t index = bufferOut_ + idx;
 209:./libDaisy//src/util/FIFO.h ****         if(index >= bufferSize_)
 210:./libDaisy//src/util/FIFO.h ****             index -= bufferSize_;
 211:./libDaisy//src/util/FIFO.h ****         size_t nextIndex = index + 1;
 212:./libDaisy//src/util/FIFO.h ****         if(nextIndex >= bufferSize_)
 213:./libDaisy//src/util/FIFO.h ****             nextIndex -= bufferSize_;
 214:./libDaisy//src/util/FIFO.h **** 
 215:./libDaisy//src/util/FIFO.h ****         while(nextIndex != bufferIn_)
 216:./libDaisy//src/util/FIFO.h ****         {
 217:./libDaisy//src/util/FIFO.h ****             buffer_[index] = buffer_[nextIndex];
 218:./libDaisy//src/util/FIFO.h ****             index++;
 219:./libDaisy//src/util/FIFO.h ****             nextIndex++;
 220:./libDaisy//src/util/FIFO.h ****             if(index >= bufferSize_)
 221:./libDaisy//src/util/FIFO.h ****                 index -= bufferSize_;
 222:./libDaisy//src/util/FIFO.h ****             if(nextIndex >= bufferSize_)
 223:./libDaisy//src/util/FIFO.h ****                 nextIndex -= bufferSize_;
 224:./libDaisy//src/util/FIFO.h ****         }
 225:./libDaisy//src/util/FIFO.h **** 
 226:./libDaisy//src/util/FIFO.h ****         int32_t nextBufferIn = int32_t(bufferIn_) - 1;
 227:./libDaisy//src/util/FIFO.h ****         if(nextBufferIn < 0)
 228:./libDaisy//src/util/FIFO.h ****             nextBufferIn += bufferSize_;
 229:./libDaisy//src/util/FIFO.h ****         bufferIn_ = size_t(nextBufferIn);
 230:./libDaisy//src/util/FIFO.h **** 
 231:./libDaisy//src/util/FIFO.h ****         return true;
 232:./libDaisy//src/util/FIFO.h ****     }
 233:./libDaisy//src/util/FIFO.h **** 
 234:./libDaisy//src/util/FIFO.h ****     /** removes all elements from the buffer for which
 235:./libDaisy//src/util/FIFO.h ****         (buffer(index) == element) returns true and returns the number of
 236:./libDaisy//src/util/FIFO.h ****         elements that were removed. */
 237:./libDaisy//src/util/FIFO.h ****     size_t RemoveAllEqualTo(const T& element)
 238:./libDaisy//src/util/FIFO.h ****     {
ARM GAS  /var/folders/3b/wwnq8dkd3pv49d6v3x9xry0m0000gn/T//ccooLPnb.s 			page 39


 239:./libDaisy//src/util/FIFO.h ****         size_t numRemoved = 0;
 240:./libDaisy//src/util/FIFO.h ****         int    idx        = GetNumElements() - 1;
 241:./libDaisy//src/util/FIFO.h ****         while(idx >= 0)
 242:./libDaisy//src/util/FIFO.h ****         {
 243:./libDaisy//src/util/FIFO.h ****             if((*this)[idx] == element)
 244:./libDaisy//src/util/FIFO.h ****             {
 245:./libDaisy//src/util/FIFO.h ****                 numRemoved++;
 246:./libDaisy//src/util/FIFO.h ****                 Remove(idx);
 247:./libDaisy//src/util/FIFO.h ****                 // was that the last element?
 248:./libDaisy//src/util/FIFO.h ****                 if(idx == int(GetNumElements()) - 1)
 249:./libDaisy//src/util/FIFO.h ****                     idx--;
 250:./libDaisy//src/util/FIFO.h ****             }
 251:./libDaisy//src/util/FIFO.h ****             else
 252:./libDaisy//src/util/FIFO.h ****                 idx--;
 253:./libDaisy//src/util/FIFO.h ****         }
 254:./libDaisy//src/util/FIFO.h ****         return numRemoved;
 255:./libDaisy//src/util/FIFO.h ****     }
 256:./libDaisy//src/util/FIFO.h **** 
 257:./libDaisy//src/util/FIFO.h ****     /** returns the element "idx" positions behind the first element */
 258:./libDaisy//src/util/FIFO.h ****     T& operator[](size_t idx)
 259:./libDaisy//src/util/FIFO.h ****     {
 260:./libDaisy//src/util/FIFO.h ****         if(idx >= GetNumElements())
 261:./libDaisy//src/util/FIFO.h ****             // invalid, but better not pass a temporary T() object as a reference...
 262:./libDaisy//src/util/FIFO.h ****             return buffer_[0];
 263:./libDaisy//src/util/FIFO.h **** 
 264:./libDaisy//src/util/FIFO.h ****         size_t index = bufferOut_ + idx;
 265:./libDaisy//src/util/FIFO.h ****         if(index >= bufferSize_)
 266:./libDaisy//src/util/FIFO.h ****             index -= bufferSize_;
 267:./libDaisy//src/util/FIFO.h ****         return buffer_[index];
 268:./libDaisy//src/util/FIFO.h ****     }
 269:./libDaisy//src/util/FIFO.h **** 
 270:./libDaisy//src/util/FIFO.h ****     /** returns the element "idx" positions behind the first element */
 271:./libDaisy//src/util/FIFO.h ****     const T& operator[](size_t idx) const
 272:./libDaisy//src/util/FIFO.h ****     {
 273:./libDaisy//src/util/FIFO.h ****         if(idx >= GetNumElements())
 274:./libDaisy//src/util/FIFO.h ****             // invalid, but better not pass a temporary T() object as a reference...
 275:./libDaisy//src/util/FIFO.h ****             return buffer_[0];
 276:./libDaisy//src/util/FIFO.h **** 
 277:./libDaisy//src/util/FIFO.h ****         size_t index = bufferOut_ + idx;
 278:./libDaisy//src/util/FIFO.h ****         if(index >= bufferSize_)
 279:./libDaisy//src/util/FIFO.h ****             index -= bufferSize_;
 280:./libDaisy//src/util/FIFO.h ****         return buffer_[index];
 281:./libDaisy//src/util/FIFO.h ****     }
 282:./libDaisy//src/util/FIFO.h **** 
 283:./libDaisy//src/util/FIFO.h ****     /** returns the total capacity */
 284:./libDaisy//src/util/FIFO.h ****     size_t GetCapacity() const { return bufferSize_ - 1; }
 285:./libDaisy//src/util/FIFO.h **** 
 286:./libDaisy//src/util/FIFO.h ****   private:
 287:./libDaisy//src/util/FIFO.h ****     FIFOBase(const FIFOBase<T>&) {} // non copyable
 288:./libDaisy//src/util/FIFO.h **** 
 289:./libDaisy//src/util/FIFO.h ****   private:
 290:./libDaisy//src/util/FIFO.h ****     T*           buffer_;
 291:./libDaisy//src/util/FIFO.h ****     const size_t bufferSize_;
 292:./libDaisy//src/util/FIFO.h ****     size_t       bufferIn_;
 293:./libDaisy//src/util/FIFO.h ****     size_t       bufferOut_;
 294:./libDaisy//src/util/FIFO.h **** };
 295:./libDaisy//src/util/FIFO.h **** 
ARM GAS  /var/folders/3b/wwnq8dkd3pv49d6v3x9xry0m0000gn/T//ccooLPnb.s 			page 40


 296:./libDaisy//src/util/FIFO.h **** /** A simple FIFO ring buffer with a fixed size. */
 297:./libDaisy//src/util/FIFO.h **** template <typename T, size_t capacity>
 298:./libDaisy//src/util/FIFO.h **** class FIFO : public FIFOBase<T>
 299:./libDaisy//src/util/FIFO.h **** {
 300:./libDaisy//src/util/FIFO.h ****   public:
 301:./libDaisy//src/util/FIFO.h ****     /** Creates an empty FIFO */
 302:./libDaisy//src/util/FIFO.h ****     FIFO() : FIFOBase<T>(buffer_, capacity + 1) {}
 581              		.loc 2 302 5 is_stmt 1 view .LVU131
 582              	.LBB663:
 583              	.LBB659:
 584              	.LBI654:
  14:./libDaisy//src/util/FIFO.h ****     : buffer_(buffer), bufferSize_(bufferSize), bufferIn_(0), bufferOut_(0)
 585              		.loc 2 14 5 view .LVU132
 586              	.LBE659:
 587              	.LBE663:
 588              	.LBE667:
 589              	.LBB668:
 590              	.LBB669:
 591              	.LBB670:
 201:/Library/DaisyToolchain/0.2.0/arm/arm-none-eabi/include/c++/10.3.1/bits/basic_string.h **** #else
 592              		.loc 5 201 51 is_stmt 0 view .LVU133
 593 000e 00F58461 		add	r1, r0, #1056
 594              	.LVL39:
 201:/Library/DaisyToolchain/0.2.0/arm/arm-none-eabi/include/c++/10.3.1/bits/basic_string.h **** #else
 595              		.loc 5 201 51 view .LVU134
 596              	.LBE670:
 597              	.LBE669:
 598              	.LBE668:
 599              	.LBB697:
 600              	.LBB664:
 601              	.LBB660:
 602              	.LBB656:
  15:./libDaisy//src/util/FIFO.h ****     {
 603              		.loc 2 15 75 view .LVU135
 604 0012 8560     		str	r5, [r0, #8]
 605              	.LBE656:
 606              	.LBE660:
 607              	.LBE664:
 608              	.LBE697:
 609              	.LBB698:
 610              	.LBB671:
 611              	.LBB672:
 165:/Library/DaisyToolchain/0.2.0/arm/arm-none-eabi/include/c++/10.3.1/bits/basic_string.h **** 
 612              		.loc 5 165 35 view .LVU136
 613 0014 C0F81814 		str	r1, [r0, #1048]
 614              	.LBE672:
 615              	.LBE671:
 616              	.LBE698:
   7:library/serial_library.cpp ****     instance_ = this;
 617              		.loc 1 7 15 view .LVU137
 618 0018 0549     		ldr	r1, .L52
 619              	.LBB699:
 620              	.LBB665:
 621              	.LBB661:
 622              	.LBB657:
  15:./libDaisy//src/util/FIFO.h ****     {
 623              		.loc 2 15 75 view .LVU138
ARM GAS  /var/folders/3b/wwnq8dkd3pv49d6v3x9xry0m0000gn/T//ccooLPnb.s 			page 41


 624 001a 4460     		str	r4, [r0, #4]
 625              	.LBE657:
 626              	.LBE661:
 627              	.LBE665:
 628              	.LBE699:
 629              	.LBB700:
 630              	.LBB676:
 631              	.LBB677:
 632              	.LBB678:
 633              	.LBB679:
 634              	.LBB680:
 635              	.LBB681:
 191:/Library/DaisyToolchain/0.2.0/arm/arm-none-eabi/include/c++/10.3.1/bits/basic_string.h **** 
 636              		.loc 5 191 26 view .LVU139
 637 001c C0F81C24 		str	r2, [r0, #1052]
 638              	.LBE681:
 639              	.LBE680:
 640              	.LBB682:
 641              	.LBB683:
 329:/Library/DaisyToolchain/0.2.0/arm/arm-none-eabi/include/c++/10.3.1/bits/char_traits.h **** 
 642              		.loc 6 329 14 view .LVU140
 643 0020 80F82024 		strb	r2, [r0, #1056]
 644              	.LBE683:
 645              	.LBE682:
 646              	.LBE679:
 647              	.LBE678:
 648              	.LBE677:
 649              	.LBE676:
 650              	.LBE700:
   7:library/serial_library.cpp ****     instance_ = this;
 651              		.loc 1 7 15 view .LVU141
 652 0024 0860     		str	r0, [r1]
 653              	.LBE651:
   8:library/serial_library.cpp **** }
 654              		.loc 1 8 1 view .LVU142
 655 0026 30BC     		pop	{r4, r5}
 656              		.cfi_restore 5
 657              		.cfi_restore 4
 658              		.cfi_def_cfa_offset 0
 659              	.LVL40:
 660              	.LBB709:
 661              	.LBB701:
 662              	.LBB666:
 663              	.LBB662:
 664              	.LBB658:
  15:./libDaisy//src/util/FIFO.h ****     {
 665              		.loc 2 15 75 view .LVU143
 666 0028 C0E90322 		strd	r2, r2, [r0, #12]
 667              	.LVL41:
  15:./libDaisy//src/util/FIFO.h ****     {
 668              		.loc 2 15 75 view .LVU144
 669              	.LBE658:
 670              	.LBE662:
 671              	.LBE666:
 672              	.LBE701:
 673              	.LBB702:
 674              	.LBI702:
ARM GAS  /var/folders/3b/wwnq8dkd3pv49d6v3x9xry0m0000gn/T//ccooLPnb.s 			page 42


 675              		.file 7 "/Library/DaisyToolchain/0.2.0/arm/arm-none-eabi/include/c++/10.3.1/bits/allocator.h"
   1:/Library/DaisyToolchain/0.2.0/arm/arm-none-eabi/include/c++/10.3.1/bits/allocator.h **** // Allocators -*- C++ -*-
   2:/Library/DaisyToolchain/0.2.0/arm/arm-none-eabi/include/c++/10.3.1/bits/allocator.h **** 
   3:/Library/DaisyToolchain/0.2.0/arm/arm-none-eabi/include/c++/10.3.1/bits/allocator.h **** // Copyright (C) 2001-2020 Free Software Foundation, Inc.
   4:/Library/DaisyToolchain/0.2.0/arm/arm-none-eabi/include/c++/10.3.1/bits/allocator.h **** //
   5:/Library/DaisyToolchain/0.2.0/arm/arm-none-eabi/include/c++/10.3.1/bits/allocator.h **** // This file is part of the GNU ISO C++ Library.  This library is free
   6:/Library/DaisyToolchain/0.2.0/arm/arm-none-eabi/include/c++/10.3.1/bits/allocator.h **** // software; you can redistribute it and/or modify it under the
   7:/Library/DaisyToolchain/0.2.0/arm/arm-none-eabi/include/c++/10.3.1/bits/allocator.h **** // terms of the GNU General Public License as published by the
   8:/Library/DaisyToolchain/0.2.0/arm/arm-none-eabi/include/c++/10.3.1/bits/allocator.h **** // Free Software Foundation; either version 3, or (at your option)
   9:/Library/DaisyToolchain/0.2.0/arm/arm-none-eabi/include/c++/10.3.1/bits/allocator.h **** // any later version.
  10:/Library/DaisyToolchain/0.2.0/arm/arm-none-eabi/include/c++/10.3.1/bits/allocator.h **** 
  11:/Library/DaisyToolchain/0.2.0/arm/arm-none-eabi/include/c++/10.3.1/bits/allocator.h **** // This library is distributed in the hope that it will be useful,
  12:/Library/DaisyToolchain/0.2.0/arm/arm-none-eabi/include/c++/10.3.1/bits/allocator.h **** // but WITHOUT ANY WARRANTY; without even the implied warranty of
  13:/Library/DaisyToolchain/0.2.0/arm/arm-none-eabi/include/c++/10.3.1/bits/allocator.h **** // MERCHANTABILITY or FITNESS FOR A PARTICULAR PURPOSE.  See the
  14:/Library/DaisyToolchain/0.2.0/arm/arm-none-eabi/include/c++/10.3.1/bits/allocator.h **** // GNU General Public License for more details.
  15:/Library/DaisyToolchain/0.2.0/arm/arm-none-eabi/include/c++/10.3.1/bits/allocator.h **** 
  16:/Library/DaisyToolchain/0.2.0/arm/arm-none-eabi/include/c++/10.3.1/bits/allocator.h **** // Under Section 7 of GPL version 3, you are granted additional
  17:/Library/DaisyToolchain/0.2.0/arm/arm-none-eabi/include/c++/10.3.1/bits/allocator.h **** // permissions described in the GCC Runtime Library Exception, version
  18:/Library/DaisyToolchain/0.2.0/arm/arm-none-eabi/include/c++/10.3.1/bits/allocator.h **** // 3.1, as published by the Free Software Foundation.
  19:/Library/DaisyToolchain/0.2.0/arm/arm-none-eabi/include/c++/10.3.1/bits/allocator.h **** 
  20:/Library/DaisyToolchain/0.2.0/arm/arm-none-eabi/include/c++/10.3.1/bits/allocator.h **** // You should have received a copy of the GNU General Public License and
  21:/Library/DaisyToolchain/0.2.0/arm/arm-none-eabi/include/c++/10.3.1/bits/allocator.h **** // a copy of the GCC Runtime Library Exception along with this program;
  22:/Library/DaisyToolchain/0.2.0/arm/arm-none-eabi/include/c++/10.3.1/bits/allocator.h **** // see the files COPYING3 and COPYING.RUNTIME respectively.  If not, see
  23:/Library/DaisyToolchain/0.2.0/arm/arm-none-eabi/include/c++/10.3.1/bits/allocator.h **** // <http://www.gnu.org/licenses/>.
  24:/Library/DaisyToolchain/0.2.0/arm/arm-none-eabi/include/c++/10.3.1/bits/allocator.h **** 
  25:/Library/DaisyToolchain/0.2.0/arm/arm-none-eabi/include/c++/10.3.1/bits/allocator.h **** /*
  26:/Library/DaisyToolchain/0.2.0/arm/arm-none-eabi/include/c++/10.3.1/bits/allocator.h ****  * Copyright (c) 1996-1997
  27:/Library/DaisyToolchain/0.2.0/arm/arm-none-eabi/include/c++/10.3.1/bits/allocator.h ****  * Silicon Graphics Computer Systems, Inc.
  28:/Library/DaisyToolchain/0.2.0/arm/arm-none-eabi/include/c++/10.3.1/bits/allocator.h ****  *
  29:/Library/DaisyToolchain/0.2.0/arm/arm-none-eabi/include/c++/10.3.1/bits/allocator.h ****  * Permission to use, copy, modify, distribute and sell this software
  30:/Library/DaisyToolchain/0.2.0/arm/arm-none-eabi/include/c++/10.3.1/bits/allocator.h ****  * and its documentation for any purpose is hereby granted without fee,
  31:/Library/DaisyToolchain/0.2.0/arm/arm-none-eabi/include/c++/10.3.1/bits/allocator.h ****  * provided that the above copyright notice appear in all copies and
  32:/Library/DaisyToolchain/0.2.0/arm/arm-none-eabi/include/c++/10.3.1/bits/allocator.h ****  * that both that copyright notice and this permission notice appear
  33:/Library/DaisyToolchain/0.2.0/arm/arm-none-eabi/include/c++/10.3.1/bits/allocator.h ****  * in supporting documentation.  Silicon Graphics makes no
  34:/Library/DaisyToolchain/0.2.0/arm/arm-none-eabi/include/c++/10.3.1/bits/allocator.h ****  * representations about the suitability of this software for any
  35:/Library/DaisyToolchain/0.2.0/arm/arm-none-eabi/include/c++/10.3.1/bits/allocator.h ****  * purpose.  It is provided "as is" without express or implied warranty.
  36:/Library/DaisyToolchain/0.2.0/arm/arm-none-eabi/include/c++/10.3.1/bits/allocator.h ****  */
  37:/Library/DaisyToolchain/0.2.0/arm/arm-none-eabi/include/c++/10.3.1/bits/allocator.h **** 
  38:/Library/DaisyToolchain/0.2.0/arm/arm-none-eabi/include/c++/10.3.1/bits/allocator.h **** /** @file bits/allocator.h
  39:/Library/DaisyToolchain/0.2.0/arm/arm-none-eabi/include/c++/10.3.1/bits/allocator.h ****  *  This is an internal header file, included by other library headers.
  40:/Library/DaisyToolchain/0.2.0/arm/arm-none-eabi/include/c++/10.3.1/bits/allocator.h ****  *  Do not attempt to use it directly. @headername{memory}
  41:/Library/DaisyToolchain/0.2.0/arm/arm-none-eabi/include/c++/10.3.1/bits/allocator.h ****  */
  42:/Library/DaisyToolchain/0.2.0/arm/arm-none-eabi/include/c++/10.3.1/bits/allocator.h **** 
  43:/Library/DaisyToolchain/0.2.0/arm/arm-none-eabi/include/c++/10.3.1/bits/allocator.h **** #ifndef _ALLOCATOR_H
  44:/Library/DaisyToolchain/0.2.0/arm/arm-none-eabi/include/c++/10.3.1/bits/allocator.h **** #define _ALLOCATOR_H 1
  45:/Library/DaisyToolchain/0.2.0/arm/arm-none-eabi/include/c++/10.3.1/bits/allocator.h **** 
  46:/Library/DaisyToolchain/0.2.0/arm/arm-none-eabi/include/c++/10.3.1/bits/allocator.h **** #include <bits/c++allocator.h> // Define the base class to std::allocator.
  47:/Library/DaisyToolchain/0.2.0/arm/arm-none-eabi/include/c++/10.3.1/bits/allocator.h **** #include <bits/memoryfwd.h>
  48:/Library/DaisyToolchain/0.2.0/arm/arm-none-eabi/include/c++/10.3.1/bits/allocator.h **** #if __cplusplus >= 201103L
  49:/Library/DaisyToolchain/0.2.0/arm/arm-none-eabi/include/c++/10.3.1/bits/allocator.h **** #include <type_traits>
  50:/Library/DaisyToolchain/0.2.0/arm/arm-none-eabi/include/c++/10.3.1/bits/allocator.h **** #endif
  51:/Library/DaisyToolchain/0.2.0/arm/arm-none-eabi/include/c++/10.3.1/bits/allocator.h **** 
  52:/Library/DaisyToolchain/0.2.0/arm/arm-none-eabi/include/c++/10.3.1/bits/allocator.h **** #define __cpp_lib_incomplete_container_elements 201505
  53:/Library/DaisyToolchain/0.2.0/arm/arm-none-eabi/include/c++/10.3.1/bits/allocator.h **** 
  54:/Library/DaisyToolchain/0.2.0/arm/arm-none-eabi/include/c++/10.3.1/bits/allocator.h **** namespace std _GLIBCXX_VISIBILITY(default)
  55:/Library/DaisyToolchain/0.2.0/arm/arm-none-eabi/include/c++/10.3.1/bits/allocator.h **** {
  56:/Library/DaisyToolchain/0.2.0/arm/arm-none-eabi/include/c++/10.3.1/bits/allocator.h **** _GLIBCXX_BEGIN_NAMESPACE_VERSION
ARM GAS  /var/folders/3b/wwnq8dkd3pv49d6v3x9xry0m0000gn/T//ccooLPnb.s 			page 43


  57:/Library/DaisyToolchain/0.2.0/arm/arm-none-eabi/include/c++/10.3.1/bits/allocator.h **** 
  58:/Library/DaisyToolchain/0.2.0/arm/arm-none-eabi/include/c++/10.3.1/bits/allocator.h ****   /**
  59:/Library/DaisyToolchain/0.2.0/arm/arm-none-eabi/include/c++/10.3.1/bits/allocator.h ****    *  @addtogroup allocators
  60:/Library/DaisyToolchain/0.2.0/arm/arm-none-eabi/include/c++/10.3.1/bits/allocator.h ****    *  @{
  61:/Library/DaisyToolchain/0.2.0/arm/arm-none-eabi/include/c++/10.3.1/bits/allocator.h ****    */
  62:/Library/DaisyToolchain/0.2.0/arm/arm-none-eabi/include/c++/10.3.1/bits/allocator.h **** 
  63:/Library/DaisyToolchain/0.2.0/arm/arm-none-eabi/include/c++/10.3.1/bits/allocator.h ****   // Since C++20 the primary template should be used for allocator<void>,
  64:/Library/DaisyToolchain/0.2.0/arm/arm-none-eabi/include/c++/10.3.1/bits/allocator.h ****   // but then it would have a non-trivial default ctor and dtor, which
  65:/Library/DaisyToolchain/0.2.0/arm/arm-none-eabi/include/c++/10.3.1/bits/allocator.h ****   // would be an ABI change. So C++20 still uses the allocator<void> explicit
  66:/Library/DaisyToolchain/0.2.0/arm/arm-none-eabi/include/c++/10.3.1/bits/allocator.h ****   // specialization, with the historical ABI properties, but with the same
  67:/Library/DaisyToolchain/0.2.0/arm/arm-none-eabi/include/c++/10.3.1/bits/allocator.h ****   // members that are present in the primary template.
  68:/Library/DaisyToolchain/0.2.0/arm/arm-none-eabi/include/c++/10.3.1/bits/allocator.h **** 
  69:/Library/DaisyToolchain/0.2.0/arm/arm-none-eabi/include/c++/10.3.1/bits/allocator.h **** #if ! _GLIBCXX_INLINE_VERSION
  70:/Library/DaisyToolchain/0.2.0/arm/arm-none-eabi/include/c++/10.3.1/bits/allocator.h ****   /// allocator<void> specialization.
  71:/Library/DaisyToolchain/0.2.0/arm/arm-none-eabi/include/c++/10.3.1/bits/allocator.h ****   template<>
  72:/Library/DaisyToolchain/0.2.0/arm/arm-none-eabi/include/c++/10.3.1/bits/allocator.h ****     class allocator<void>
  73:/Library/DaisyToolchain/0.2.0/arm/arm-none-eabi/include/c++/10.3.1/bits/allocator.h ****     {
  74:/Library/DaisyToolchain/0.2.0/arm/arm-none-eabi/include/c++/10.3.1/bits/allocator.h ****     public:
  75:/Library/DaisyToolchain/0.2.0/arm/arm-none-eabi/include/c++/10.3.1/bits/allocator.h ****       typedef void        value_type;
  76:/Library/DaisyToolchain/0.2.0/arm/arm-none-eabi/include/c++/10.3.1/bits/allocator.h ****       typedef size_t      size_type;
  77:/Library/DaisyToolchain/0.2.0/arm/arm-none-eabi/include/c++/10.3.1/bits/allocator.h ****       typedef ptrdiff_t   difference_type;
  78:/Library/DaisyToolchain/0.2.0/arm/arm-none-eabi/include/c++/10.3.1/bits/allocator.h **** 
  79:/Library/DaisyToolchain/0.2.0/arm/arm-none-eabi/include/c++/10.3.1/bits/allocator.h **** #if __cplusplus <= 201703L
  80:/Library/DaisyToolchain/0.2.0/arm/arm-none-eabi/include/c++/10.3.1/bits/allocator.h ****       // These were removed for C++20.
  81:/Library/DaisyToolchain/0.2.0/arm/arm-none-eabi/include/c++/10.3.1/bits/allocator.h ****       typedef void*       pointer;
  82:/Library/DaisyToolchain/0.2.0/arm/arm-none-eabi/include/c++/10.3.1/bits/allocator.h ****       typedef const void* const_pointer;
  83:/Library/DaisyToolchain/0.2.0/arm/arm-none-eabi/include/c++/10.3.1/bits/allocator.h **** 
  84:/Library/DaisyToolchain/0.2.0/arm/arm-none-eabi/include/c++/10.3.1/bits/allocator.h ****       template<typename _Tp1>
  85:/Library/DaisyToolchain/0.2.0/arm/arm-none-eabi/include/c++/10.3.1/bits/allocator.h **** 	struct rebind
  86:/Library/DaisyToolchain/0.2.0/arm/arm-none-eabi/include/c++/10.3.1/bits/allocator.h **** 	{ typedef allocator<_Tp1> other; };
  87:/Library/DaisyToolchain/0.2.0/arm/arm-none-eabi/include/c++/10.3.1/bits/allocator.h **** #endif
  88:/Library/DaisyToolchain/0.2.0/arm/arm-none-eabi/include/c++/10.3.1/bits/allocator.h **** 
  89:/Library/DaisyToolchain/0.2.0/arm/arm-none-eabi/include/c++/10.3.1/bits/allocator.h **** #if __cplusplus >= 201103L
  90:/Library/DaisyToolchain/0.2.0/arm/arm-none-eabi/include/c++/10.3.1/bits/allocator.h ****       // _GLIBCXX_RESOLVE_LIB_DEFECTS
  91:/Library/DaisyToolchain/0.2.0/arm/arm-none-eabi/include/c++/10.3.1/bits/allocator.h ****       // 2103. std::allocator propagate_on_container_move_assignment
  92:/Library/DaisyToolchain/0.2.0/arm/arm-none-eabi/include/c++/10.3.1/bits/allocator.h ****       typedef true_type propagate_on_container_move_assignment;
  93:/Library/DaisyToolchain/0.2.0/arm/arm-none-eabi/include/c++/10.3.1/bits/allocator.h **** 
  94:/Library/DaisyToolchain/0.2.0/arm/arm-none-eabi/include/c++/10.3.1/bits/allocator.h ****       typedef true_type is_always_equal;
  95:/Library/DaisyToolchain/0.2.0/arm/arm-none-eabi/include/c++/10.3.1/bits/allocator.h **** 
  96:/Library/DaisyToolchain/0.2.0/arm/arm-none-eabi/include/c++/10.3.1/bits/allocator.h **** #if __cplusplus > 201703L
  97:/Library/DaisyToolchain/0.2.0/arm/arm-none-eabi/include/c++/10.3.1/bits/allocator.h ****       allocator() = default;
  98:/Library/DaisyToolchain/0.2.0/arm/arm-none-eabi/include/c++/10.3.1/bits/allocator.h **** 
  99:/Library/DaisyToolchain/0.2.0/arm/arm-none-eabi/include/c++/10.3.1/bits/allocator.h ****       template<typename _Up>
 100:/Library/DaisyToolchain/0.2.0/arm/arm-none-eabi/include/c++/10.3.1/bits/allocator.h **** 	constexpr
 101:/Library/DaisyToolchain/0.2.0/arm/arm-none-eabi/include/c++/10.3.1/bits/allocator.h **** 	allocator(const allocator<_Up>&) noexcept { }
 102:/Library/DaisyToolchain/0.2.0/arm/arm-none-eabi/include/c++/10.3.1/bits/allocator.h **** 
 103:/Library/DaisyToolchain/0.2.0/arm/arm-none-eabi/include/c++/10.3.1/bits/allocator.h ****       // No allocate member because it's ill-formed by LWG 3307.
 104:/Library/DaisyToolchain/0.2.0/arm/arm-none-eabi/include/c++/10.3.1/bits/allocator.h ****       // No deallocate member because it would be undefined to call it
 105:/Library/DaisyToolchain/0.2.0/arm/arm-none-eabi/include/c++/10.3.1/bits/allocator.h ****       // with any pointer which wasn't obtained from allocate.
 106:/Library/DaisyToolchain/0.2.0/arm/arm-none-eabi/include/c++/10.3.1/bits/allocator.h **** 
 107:/Library/DaisyToolchain/0.2.0/arm/arm-none-eabi/include/c++/10.3.1/bits/allocator.h **** #else // ! C++20
 108:/Library/DaisyToolchain/0.2.0/arm/arm-none-eabi/include/c++/10.3.1/bits/allocator.h ****       // allocator_traits<allocator<void>> uses construct and destroy.
 109:/Library/DaisyToolchain/0.2.0/arm/arm-none-eabi/include/c++/10.3.1/bits/allocator.h ****       template<typename _Up, typename... _Args>
 110:/Library/DaisyToolchain/0.2.0/arm/arm-none-eabi/include/c++/10.3.1/bits/allocator.h **** 	void
 111:/Library/DaisyToolchain/0.2.0/arm/arm-none-eabi/include/c++/10.3.1/bits/allocator.h **** 	construct(_Up* __p, _Args&&... __args)
 112:/Library/DaisyToolchain/0.2.0/arm/arm-none-eabi/include/c++/10.3.1/bits/allocator.h **** 	noexcept(std::is_nothrow_constructible<_Up, _Args...>::value)
 113:/Library/DaisyToolchain/0.2.0/arm/arm-none-eabi/include/c++/10.3.1/bits/allocator.h **** 	{ ::new((void *)__p) _Up(std::forward<_Args>(__args)...); }
ARM GAS  /var/folders/3b/wwnq8dkd3pv49d6v3x9xry0m0000gn/T//ccooLPnb.s 			page 44


 114:/Library/DaisyToolchain/0.2.0/arm/arm-none-eabi/include/c++/10.3.1/bits/allocator.h **** 
 115:/Library/DaisyToolchain/0.2.0/arm/arm-none-eabi/include/c++/10.3.1/bits/allocator.h ****       template<typename _Up>
 116:/Library/DaisyToolchain/0.2.0/arm/arm-none-eabi/include/c++/10.3.1/bits/allocator.h **** 	void
 117:/Library/DaisyToolchain/0.2.0/arm/arm-none-eabi/include/c++/10.3.1/bits/allocator.h **** 	destroy(_Up* __p)
 118:/Library/DaisyToolchain/0.2.0/arm/arm-none-eabi/include/c++/10.3.1/bits/allocator.h **** 	noexcept(std::is_nothrow_destructible<_Up>::value)
 119:/Library/DaisyToolchain/0.2.0/arm/arm-none-eabi/include/c++/10.3.1/bits/allocator.h **** 	{ __p->~_Up(); }
 120:/Library/DaisyToolchain/0.2.0/arm/arm-none-eabi/include/c++/10.3.1/bits/allocator.h **** #endif // C++17
 121:/Library/DaisyToolchain/0.2.0/arm/arm-none-eabi/include/c++/10.3.1/bits/allocator.h **** #endif // C++11
 122:/Library/DaisyToolchain/0.2.0/arm/arm-none-eabi/include/c++/10.3.1/bits/allocator.h ****     };
 123:/Library/DaisyToolchain/0.2.0/arm/arm-none-eabi/include/c++/10.3.1/bits/allocator.h **** #endif // ! _GLIBCXX_INLINE_VERSION
 124:/Library/DaisyToolchain/0.2.0/arm/arm-none-eabi/include/c++/10.3.1/bits/allocator.h **** 
 125:/Library/DaisyToolchain/0.2.0/arm/arm-none-eabi/include/c++/10.3.1/bits/allocator.h ****   /**
 126:/Library/DaisyToolchain/0.2.0/arm/arm-none-eabi/include/c++/10.3.1/bits/allocator.h ****    * @brief  The @a standard allocator, as per C++03 [20.4.1].
 127:/Library/DaisyToolchain/0.2.0/arm/arm-none-eabi/include/c++/10.3.1/bits/allocator.h ****    *
 128:/Library/DaisyToolchain/0.2.0/arm/arm-none-eabi/include/c++/10.3.1/bits/allocator.h ****    *  See https://gcc.gnu.org/onlinedocs/libstdc++/manual/memory.html#std.util.memory.allocator
 129:/Library/DaisyToolchain/0.2.0/arm/arm-none-eabi/include/c++/10.3.1/bits/allocator.h ****    *  for further details.
 130:/Library/DaisyToolchain/0.2.0/arm/arm-none-eabi/include/c++/10.3.1/bits/allocator.h ****    *
 131:/Library/DaisyToolchain/0.2.0/arm/arm-none-eabi/include/c++/10.3.1/bits/allocator.h ****    *  @tparam  _Tp  Type of allocated object.
 132:/Library/DaisyToolchain/0.2.0/arm/arm-none-eabi/include/c++/10.3.1/bits/allocator.h ****    */
 133:/Library/DaisyToolchain/0.2.0/arm/arm-none-eabi/include/c++/10.3.1/bits/allocator.h ****   template<typename _Tp>
 134:/Library/DaisyToolchain/0.2.0/arm/arm-none-eabi/include/c++/10.3.1/bits/allocator.h ****     class allocator : public __allocator_base<_Tp>
 135:/Library/DaisyToolchain/0.2.0/arm/arm-none-eabi/include/c++/10.3.1/bits/allocator.h ****     {
 136:/Library/DaisyToolchain/0.2.0/arm/arm-none-eabi/include/c++/10.3.1/bits/allocator.h ****     public:
 137:/Library/DaisyToolchain/0.2.0/arm/arm-none-eabi/include/c++/10.3.1/bits/allocator.h ****       typedef _Tp        value_type;
 138:/Library/DaisyToolchain/0.2.0/arm/arm-none-eabi/include/c++/10.3.1/bits/allocator.h ****       typedef size_t     size_type;
 139:/Library/DaisyToolchain/0.2.0/arm/arm-none-eabi/include/c++/10.3.1/bits/allocator.h ****       typedef ptrdiff_t  difference_type;
 140:/Library/DaisyToolchain/0.2.0/arm/arm-none-eabi/include/c++/10.3.1/bits/allocator.h **** 
 141:/Library/DaisyToolchain/0.2.0/arm/arm-none-eabi/include/c++/10.3.1/bits/allocator.h **** #if __cplusplus <= 201703L
 142:/Library/DaisyToolchain/0.2.0/arm/arm-none-eabi/include/c++/10.3.1/bits/allocator.h ****       // These were removed for C++20.
 143:/Library/DaisyToolchain/0.2.0/arm/arm-none-eabi/include/c++/10.3.1/bits/allocator.h ****       typedef _Tp*       pointer;
 144:/Library/DaisyToolchain/0.2.0/arm/arm-none-eabi/include/c++/10.3.1/bits/allocator.h ****       typedef const _Tp* const_pointer;
 145:/Library/DaisyToolchain/0.2.0/arm/arm-none-eabi/include/c++/10.3.1/bits/allocator.h ****       typedef _Tp&       reference;
 146:/Library/DaisyToolchain/0.2.0/arm/arm-none-eabi/include/c++/10.3.1/bits/allocator.h ****       typedef const _Tp& const_reference;
 147:/Library/DaisyToolchain/0.2.0/arm/arm-none-eabi/include/c++/10.3.1/bits/allocator.h **** 
 148:/Library/DaisyToolchain/0.2.0/arm/arm-none-eabi/include/c++/10.3.1/bits/allocator.h ****       template<typename _Tp1>
 149:/Library/DaisyToolchain/0.2.0/arm/arm-none-eabi/include/c++/10.3.1/bits/allocator.h **** 	struct rebind
 150:/Library/DaisyToolchain/0.2.0/arm/arm-none-eabi/include/c++/10.3.1/bits/allocator.h **** 	{ typedef allocator<_Tp1> other; };
 151:/Library/DaisyToolchain/0.2.0/arm/arm-none-eabi/include/c++/10.3.1/bits/allocator.h **** #endif
 152:/Library/DaisyToolchain/0.2.0/arm/arm-none-eabi/include/c++/10.3.1/bits/allocator.h **** 
 153:/Library/DaisyToolchain/0.2.0/arm/arm-none-eabi/include/c++/10.3.1/bits/allocator.h **** #if __cplusplus >= 201103L
 154:/Library/DaisyToolchain/0.2.0/arm/arm-none-eabi/include/c++/10.3.1/bits/allocator.h ****       // _GLIBCXX_RESOLVE_LIB_DEFECTS
 155:/Library/DaisyToolchain/0.2.0/arm/arm-none-eabi/include/c++/10.3.1/bits/allocator.h ****       // 2103. std::allocator propagate_on_container_move_assignment
 156:/Library/DaisyToolchain/0.2.0/arm/arm-none-eabi/include/c++/10.3.1/bits/allocator.h ****       typedef true_type propagate_on_container_move_assignment;
 157:/Library/DaisyToolchain/0.2.0/arm/arm-none-eabi/include/c++/10.3.1/bits/allocator.h **** 
 158:/Library/DaisyToolchain/0.2.0/arm/arm-none-eabi/include/c++/10.3.1/bits/allocator.h ****       typedef true_type is_always_equal;
 159:/Library/DaisyToolchain/0.2.0/arm/arm-none-eabi/include/c++/10.3.1/bits/allocator.h **** #endif
 160:/Library/DaisyToolchain/0.2.0/arm/arm-none-eabi/include/c++/10.3.1/bits/allocator.h **** 
 161:/Library/DaisyToolchain/0.2.0/arm/arm-none-eabi/include/c++/10.3.1/bits/allocator.h ****       // _GLIBCXX_RESOLVE_LIB_DEFECTS
 162:/Library/DaisyToolchain/0.2.0/arm/arm-none-eabi/include/c++/10.3.1/bits/allocator.h ****       // 3035. std::allocator's constructors should be constexpr
 163:/Library/DaisyToolchain/0.2.0/arm/arm-none-eabi/include/c++/10.3.1/bits/allocator.h ****       _GLIBCXX20_CONSTEXPR
 164:/Library/DaisyToolchain/0.2.0/arm/arm-none-eabi/include/c++/10.3.1/bits/allocator.h ****       allocator() _GLIBCXX_NOTHROW { }
 676              		.loc 7 164 7 is_stmt 1 view .LVU145
 677              	.LBB703:
 678              	.LBI703:
 679              		.file 8 "/Library/DaisyToolchain/0.2.0/arm/arm-none-eabi/include/c++/10.3.1/ext/new_allocator.h"
   1:/Library/DaisyToolchain/0.2.0/arm/arm-none-eabi/include/c++/10.3.1/ext/new_allocator.h **** // Allocator that wraps operator new -*- C++ -*-
   2:/Library/DaisyToolchain/0.2.0/arm/arm-none-eabi/include/c++/10.3.1/ext/new_allocator.h **** 
ARM GAS  /var/folders/3b/wwnq8dkd3pv49d6v3x9xry0m0000gn/T//ccooLPnb.s 			page 45


   3:/Library/DaisyToolchain/0.2.0/arm/arm-none-eabi/include/c++/10.3.1/ext/new_allocator.h **** // Copyright (C) 2001-2020 Free Software Foundation, Inc.
   4:/Library/DaisyToolchain/0.2.0/arm/arm-none-eabi/include/c++/10.3.1/ext/new_allocator.h **** //
   5:/Library/DaisyToolchain/0.2.0/arm/arm-none-eabi/include/c++/10.3.1/ext/new_allocator.h **** // This file is part of the GNU ISO C++ Library.  This library is free
   6:/Library/DaisyToolchain/0.2.0/arm/arm-none-eabi/include/c++/10.3.1/ext/new_allocator.h **** // software; you can redistribute it and/or modify it under the
   7:/Library/DaisyToolchain/0.2.0/arm/arm-none-eabi/include/c++/10.3.1/ext/new_allocator.h **** // terms of the GNU General Public License as published by the
   8:/Library/DaisyToolchain/0.2.0/arm/arm-none-eabi/include/c++/10.3.1/ext/new_allocator.h **** // Free Software Foundation; either version 3, or (at your option)
   9:/Library/DaisyToolchain/0.2.0/arm/arm-none-eabi/include/c++/10.3.1/ext/new_allocator.h **** // any later version.
  10:/Library/DaisyToolchain/0.2.0/arm/arm-none-eabi/include/c++/10.3.1/ext/new_allocator.h **** 
  11:/Library/DaisyToolchain/0.2.0/arm/arm-none-eabi/include/c++/10.3.1/ext/new_allocator.h **** // This library is distributed in the hope that it will be useful,
  12:/Library/DaisyToolchain/0.2.0/arm/arm-none-eabi/include/c++/10.3.1/ext/new_allocator.h **** // but WITHOUT ANY WARRANTY; without even the implied warranty of
  13:/Library/DaisyToolchain/0.2.0/arm/arm-none-eabi/include/c++/10.3.1/ext/new_allocator.h **** // MERCHANTABILITY or FITNESS FOR A PARTICULAR PURPOSE.  See the
  14:/Library/DaisyToolchain/0.2.0/arm/arm-none-eabi/include/c++/10.3.1/ext/new_allocator.h **** // GNU General Public License for more details.
  15:/Library/DaisyToolchain/0.2.0/arm/arm-none-eabi/include/c++/10.3.1/ext/new_allocator.h **** 
  16:/Library/DaisyToolchain/0.2.0/arm/arm-none-eabi/include/c++/10.3.1/ext/new_allocator.h **** // Under Section 7 of GPL version 3, you are granted additional
  17:/Library/DaisyToolchain/0.2.0/arm/arm-none-eabi/include/c++/10.3.1/ext/new_allocator.h **** // permissions described in the GCC Runtime Library Exception, version
  18:/Library/DaisyToolchain/0.2.0/arm/arm-none-eabi/include/c++/10.3.1/ext/new_allocator.h **** // 3.1, as published by the Free Software Foundation.
  19:/Library/DaisyToolchain/0.2.0/arm/arm-none-eabi/include/c++/10.3.1/ext/new_allocator.h **** 
  20:/Library/DaisyToolchain/0.2.0/arm/arm-none-eabi/include/c++/10.3.1/ext/new_allocator.h **** // You should have received a copy of the GNU General Public License and
  21:/Library/DaisyToolchain/0.2.0/arm/arm-none-eabi/include/c++/10.3.1/ext/new_allocator.h **** // a copy of the GCC Runtime Library Exception along with this program;
  22:/Library/DaisyToolchain/0.2.0/arm/arm-none-eabi/include/c++/10.3.1/ext/new_allocator.h **** // see the files COPYING3 and COPYING.RUNTIME respectively.  If not, see
  23:/Library/DaisyToolchain/0.2.0/arm/arm-none-eabi/include/c++/10.3.1/ext/new_allocator.h **** // <http://www.gnu.org/licenses/>.
  24:/Library/DaisyToolchain/0.2.0/arm/arm-none-eabi/include/c++/10.3.1/ext/new_allocator.h **** 
  25:/Library/DaisyToolchain/0.2.0/arm/arm-none-eabi/include/c++/10.3.1/ext/new_allocator.h **** /** @file ext/new_allocator.h
  26:/Library/DaisyToolchain/0.2.0/arm/arm-none-eabi/include/c++/10.3.1/ext/new_allocator.h ****  *  This file is a GNU extension to the Standard C++ Library.
  27:/Library/DaisyToolchain/0.2.0/arm/arm-none-eabi/include/c++/10.3.1/ext/new_allocator.h ****  */
  28:/Library/DaisyToolchain/0.2.0/arm/arm-none-eabi/include/c++/10.3.1/ext/new_allocator.h **** 
  29:/Library/DaisyToolchain/0.2.0/arm/arm-none-eabi/include/c++/10.3.1/ext/new_allocator.h **** #ifndef _NEW_ALLOCATOR_H
  30:/Library/DaisyToolchain/0.2.0/arm/arm-none-eabi/include/c++/10.3.1/ext/new_allocator.h **** #define _NEW_ALLOCATOR_H 1
  31:/Library/DaisyToolchain/0.2.0/arm/arm-none-eabi/include/c++/10.3.1/ext/new_allocator.h **** 
  32:/Library/DaisyToolchain/0.2.0/arm/arm-none-eabi/include/c++/10.3.1/ext/new_allocator.h **** #include <bits/c++config.h>
  33:/Library/DaisyToolchain/0.2.0/arm/arm-none-eabi/include/c++/10.3.1/ext/new_allocator.h **** #include <new>
  34:/Library/DaisyToolchain/0.2.0/arm/arm-none-eabi/include/c++/10.3.1/ext/new_allocator.h **** #include <bits/functexcept.h>
  35:/Library/DaisyToolchain/0.2.0/arm/arm-none-eabi/include/c++/10.3.1/ext/new_allocator.h **** #include <bits/move.h>
  36:/Library/DaisyToolchain/0.2.0/arm/arm-none-eabi/include/c++/10.3.1/ext/new_allocator.h **** #if __cplusplus >= 201103L
  37:/Library/DaisyToolchain/0.2.0/arm/arm-none-eabi/include/c++/10.3.1/ext/new_allocator.h **** #include <type_traits>
  38:/Library/DaisyToolchain/0.2.0/arm/arm-none-eabi/include/c++/10.3.1/ext/new_allocator.h **** #endif
  39:/Library/DaisyToolchain/0.2.0/arm/arm-none-eabi/include/c++/10.3.1/ext/new_allocator.h **** 
  40:/Library/DaisyToolchain/0.2.0/arm/arm-none-eabi/include/c++/10.3.1/ext/new_allocator.h **** namespace __gnu_cxx _GLIBCXX_VISIBILITY(default)
  41:/Library/DaisyToolchain/0.2.0/arm/arm-none-eabi/include/c++/10.3.1/ext/new_allocator.h **** {
  42:/Library/DaisyToolchain/0.2.0/arm/arm-none-eabi/include/c++/10.3.1/ext/new_allocator.h **** _GLIBCXX_BEGIN_NAMESPACE_VERSION
  43:/Library/DaisyToolchain/0.2.0/arm/arm-none-eabi/include/c++/10.3.1/ext/new_allocator.h **** 
  44:/Library/DaisyToolchain/0.2.0/arm/arm-none-eabi/include/c++/10.3.1/ext/new_allocator.h ****   /**
  45:/Library/DaisyToolchain/0.2.0/arm/arm-none-eabi/include/c++/10.3.1/ext/new_allocator.h ****    *  @brief  An allocator that uses global new, as per C++03 [20.4.1].
  46:/Library/DaisyToolchain/0.2.0/arm/arm-none-eabi/include/c++/10.3.1/ext/new_allocator.h ****    *  @ingroup allocators
  47:/Library/DaisyToolchain/0.2.0/arm/arm-none-eabi/include/c++/10.3.1/ext/new_allocator.h ****    *
  48:/Library/DaisyToolchain/0.2.0/arm/arm-none-eabi/include/c++/10.3.1/ext/new_allocator.h ****    *  This is precisely the allocator defined in the C++ Standard.
  49:/Library/DaisyToolchain/0.2.0/arm/arm-none-eabi/include/c++/10.3.1/ext/new_allocator.h ****    *    - all allocation calls operator new
  50:/Library/DaisyToolchain/0.2.0/arm/arm-none-eabi/include/c++/10.3.1/ext/new_allocator.h ****    *    - all deallocation calls operator delete
  51:/Library/DaisyToolchain/0.2.0/arm/arm-none-eabi/include/c++/10.3.1/ext/new_allocator.h ****    *
  52:/Library/DaisyToolchain/0.2.0/arm/arm-none-eabi/include/c++/10.3.1/ext/new_allocator.h ****    *  @tparam  _Tp  Type of allocated object.
  53:/Library/DaisyToolchain/0.2.0/arm/arm-none-eabi/include/c++/10.3.1/ext/new_allocator.h ****    */
  54:/Library/DaisyToolchain/0.2.0/arm/arm-none-eabi/include/c++/10.3.1/ext/new_allocator.h ****   template<typename _Tp>
  55:/Library/DaisyToolchain/0.2.0/arm/arm-none-eabi/include/c++/10.3.1/ext/new_allocator.h ****     class new_allocator
  56:/Library/DaisyToolchain/0.2.0/arm/arm-none-eabi/include/c++/10.3.1/ext/new_allocator.h ****     {
  57:/Library/DaisyToolchain/0.2.0/arm/arm-none-eabi/include/c++/10.3.1/ext/new_allocator.h ****     public:
  58:/Library/DaisyToolchain/0.2.0/arm/arm-none-eabi/include/c++/10.3.1/ext/new_allocator.h ****       typedef _Tp        value_type;
  59:/Library/DaisyToolchain/0.2.0/arm/arm-none-eabi/include/c++/10.3.1/ext/new_allocator.h ****       typedef std::size_t     size_type;
ARM GAS  /var/folders/3b/wwnq8dkd3pv49d6v3x9xry0m0000gn/T//ccooLPnb.s 			page 46


  60:/Library/DaisyToolchain/0.2.0/arm/arm-none-eabi/include/c++/10.3.1/ext/new_allocator.h ****       typedef std::ptrdiff_t  difference_type;
  61:/Library/DaisyToolchain/0.2.0/arm/arm-none-eabi/include/c++/10.3.1/ext/new_allocator.h **** #if __cplusplus <= 201703L
  62:/Library/DaisyToolchain/0.2.0/arm/arm-none-eabi/include/c++/10.3.1/ext/new_allocator.h ****       typedef _Tp*       pointer;
  63:/Library/DaisyToolchain/0.2.0/arm/arm-none-eabi/include/c++/10.3.1/ext/new_allocator.h ****       typedef const _Tp* const_pointer;
  64:/Library/DaisyToolchain/0.2.0/arm/arm-none-eabi/include/c++/10.3.1/ext/new_allocator.h ****       typedef _Tp&       reference;
  65:/Library/DaisyToolchain/0.2.0/arm/arm-none-eabi/include/c++/10.3.1/ext/new_allocator.h ****       typedef const _Tp& const_reference;
  66:/Library/DaisyToolchain/0.2.0/arm/arm-none-eabi/include/c++/10.3.1/ext/new_allocator.h **** 
  67:/Library/DaisyToolchain/0.2.0/arm/arm-none-eabi/include/c++/10.3.1/ext/new_allocator.h ****       template<typename _Tp1>
  68:/Library/DaisyToolchain/0.2.0/arm/arm-none-eabi/include/c++/10.3.1/ext/new_allocator.h **** 	struct rebind
  69:/Library/DaisyToolchain/0.2.0/arm/arm-none-eabi/include/c++/10.3.1/ext/new_allocator.h **** 	{ typedef new_allocator<_Tp1> other; };
  70:/Library/DaisyToolchain/0.2.0/arm/arm-none-eabi/include/c++/10.3.1/ext/new_allocator.h **** #endif
  71:/Library/DaisyToolchain/0.2.0/arm/arm-none-eabi/include/c++/10.3.1/ext/new_allocator.h **** 
  72:/Library/DaisyToolchain/0.2.0/arm/arm-none-eabi/include/c++/10.3.1/ext/new_allocator.h **** #if __cplusplus >= 201103L
  73:/Library/DaisyToolchain/0.2.0/arm/arm-none-eabi/include/c++/10.3.1/ext/new_allocator.h ****       // _GLIBCXX_RESOLVE_LIB_DEFECTS
  74:/Library/DaisyToolchain/0.2.0/arm/arm-none-eabi/include/c++/10.3.1/ext/new_allocator.h ****       // 2103. propagate_on_container_move_assignment
  75:/Library/DaisyToolchain/0.2.0/arm/arm-none-eabi/include/c++/10.3.1/ext/new_allocator.h ****       typedef std::true_type propagate_on_container_move_assignment;
  76:/Library/DaisyToolchain/0.2.0/arm/arm-none-eabi/include/c++/10.3.1/ext/new_allocator.h **** #endif
  77:/Library/DaisyToolchain/0.2.0/arm/arm-none-eabi/include/c++/10.3.1/ext/new_allocator.h **** 
  78:/Library/DaisyToolchain/0.2.0/arm/arm-none-eabi/include/c++/10.3.1/ext/new_allocator.h ****       _GLIBCXX20_CONSTEXPR
  79:/Library/DaisyToolchain/0.2.0/arm/arm-none-eabi/include/c++/10.3.1/ext/new_allocator.h ****       new_allocator() _GLIBCXX_USE_NOEXCEPT { }
 680              		.loc 8 79 7 view .LVU146
 681              		.loc 8 79 7 is_stmt 0 view .LVU147
 682              	.LBE703:
 683              	.LBE702:
 684              	.LBB704:
 685              	.LBI668:
 401:/Library/DaisyToolchain/0.2.0/arm/arm-none-eabi/include/c++/10.3.1/bits/basic_string.h ****       { _S_copy(__p, __k1, __k2 - __k1); }
 402:/Library/DaisyToolchain/0.2.0/arm/arm-none-eabi/include/c++/10.3.1/bits/basic_string.h **** 
 403:/Library/DaisyToolchain/0.2.0/arm/arm-none-eabi/include/c++/10.3.1/bits/basic_string.h ****       static void
 404:/Library/DaisyToolchain/0.2.0/arm/arm-none-eabi/include/c++/10.3.1/bits/basic_string.h ****       _S_copy_chars(_CharT* __p, const _CharT* __k1, const _CharT* __k2)
 405:/Library/DaisyToolchain/0.2.0/arm/arm-none-eabi/include/c++/10.3.1/bits/basic_string.h ****       _GLIBCXX_NOEXCEPT
 406:/Library/DaisyToolchain/0.2.0/arm/arm-none-eabi/include/c++/10.3.1/bits/basic_string.h ****       { _S_copy(__p, __k1, __k2 - __k1); }
 407:/Library/DaisyToolchain/0.2.0/arm/arm-none-eabi/include/c++/10.3.1/bits/basic_string.h **** 
 408:/Library/DaisyToolchain/0.2.0/arm/arm-none-eabi/include/c++/10.3.1/bits/basic_string.h ****       static int
 409:/Library/DaisyToolchain/0.2.0/arm/arm-none-eabi/include/c++/10.3.1/bits/basic_string.h ****       _S_compare(size_type __n1, size_type __n2) _GLIBCXX_NOEXCEPT
 410:/Library/DaisyToolchain/0.2.0/arm/arm-none-eabi/include/c++/10.3.1/bits/basic_string.h ****       {
 411:/Library/DaisyToolchain/0.2.0/arm/arm-none-eabi/include/c++/10.3.1/bits/basic_string.h **** 	const difference_type __d = difference_type(__n1 - __n2);
